Renesas / SuperH SH GAS Big Endian C:\Users\Bimbo\AppData\Local\Temp\ccP7h7Mo.s 			page 1


   1              		.file	"cmd_parser.c"
   2              		.text
   3              	! GNU C (GCC) version 4.7-GNUSH_v13.01 (sh-elf)
   4              	!	compiled by GNU C version 4.2.1-sjlj (mingw32-2), GMP version 4.3.2, MPFR version 2.4.2, MPC vers
   5              	! GGC heuristics: --param ggc-min-expand=100 --param ggc-min-heapsize=131072
   6              	! options passed:  -I . -imultilib m2
   7              	! -iprefix c:\program files (x86)\kpit\gnushv13.01-elf\sh-elf\bin\../lib/gcc/sh-elf/4.7-GNUSH_v13.0
   8              	! -D SH7052 -D PLATF="SH7052" cmd_parser.c -m2 -mb
   9              	! -auxbase-strip cmd_parser.o -Os -Wall -Wextra -Wstrict-prototypes
  10              	! -std=gnu99 -ffunction-sections -fomit-frame-pointer -fstack-usage
  11              	! -fverbose-asm
  12              	! options enabled:  -fauto-inc-dec -fbranch-count-reg
  13              	! -fbranch-target-load-optimize -fcaller-saves -fcombine-stack-adjustments
  14              	! -fcommon -fcompare-elim -fcprop-registers -fcrossjumping
  15              	! -fcse-follow-jumps -fdebug-types-section -fdefer-pop -fdelayed-branch
  16              	! -fdelete-null-pointer-checks -fdevirtualize -fdwarf2-cfi-asm
  17              	! -fearly-inlining -feliminate-unused-debug-types -fexpensive-optimizations
  18              	! -fforward-propagate -ffunction-cse -ffunction-sections -fgcse -fgcse-lm
  19              	! -fgnu-runtime -fguess-branch-probability -fident -fif-conversion
  20              	! -fif-conversion2 -findirect-inlining -finline -finline-atomics
  21              	! -finline-functions -finline-functions-called-once
  22              	! -finline-small-functions -fipa-cp -fipa-profile -fipa-pure-const
  23              	! -fipa-reference -fipa-sra -fira-share-save-slots -fira-share-spill-slots
  24              	! -fivopts -fkeep-static-consts -fleading-underscore -fmath-errno
  25              	! -fmerge-constants -fmerge-debug-strings -fmove-loop-invariants
  26              	! -fomit-frame-pointer -foptimize-register-move -foptimize-sibling-calls
  27              	! -fpartial-inlining -fpeephole -fpeephole2 -fprefetch-loop-arrays
  28              	! -freg-struct-return -fregmove -freorder-blocks -freorder-functions
  29              	! -frerun-cse-after-loop -fsched-critical-path-heuristic
  30              	! -fsched-dep-count-heuristic -fsched-group-heuristic -fsched-interblock
  31              	! -fsched-last-insn-heuristic -fsched-rank-heuristic -fsched-spec
  32              	! -fsched-spec-insn-heuristic -fsched-stalled-insns-dep -fschedule-insns2
  33              	! -fshow-column -fshrink-wrap -fsigned-zeros -fsort-data
  34              	! -fsplit-ivs-in-unroller -fsplit-wide-types -fstrict-aliasing
  35              	! -fstrict-overflow -fstrict-volatile-bitfields -fthread-jumps
  36              	! -ftoplevel-reorder -ftrapping-math -ftree-bit-ccp -ftree-builtin-call-dce
  37              	! -ftree-ccp -ftree-ch -ftree-copy-prop -ftree-copyrename -ftree-cselim
  38              	! -ftree-dce -ftree-dominator-opts -ftree-dse -ftree-forwprop -ftree-fre
  39              	! -ftree-loop-if-convert -ftree-loop-im -ftree-loop-ivcanon
  40              	! -ftree-loop-optimize -ftree-parallelize-loops= -ftree-phiprop -ftree-pre
  41              	! -ftree-pta -ftree-reassoc -ftree-scev-cprop -ftree-sink
  42              	! -ftree-slp-vectorize -ftree-sra -ftree-switch-conversion
  43              	! -ftree-tail-merge -ftree-ter -ftree-vect-loop-version -ftree-vrp
  44              	! -funit-at-a-time -fverbose-asm -fzero-initialized-in-bss
  45              	! -maccumulate-outgoing-args -mb
  46              	
  47              		.section	.text.set_lasterr,"ax",@progbits
  48              		.align 1
  49              		.global	_set_lasterr
  50              		.type	_set_lasterr, @function
  51              	_set_lasterr:
  52 0000 D101     		mov.l	.L2,r1	!, tmp162
  53 0002 000B     		rts	
  54 0004 2140     		mov.b	r4,@r1	! err, lasterr
  55              	.L3:
  56 0006 0009     		.align 2
  57              	.L2:
Renesas / SuperH SH GAS Big Endian C:\Users\Bimbo\AppData\Local\Temp\ccP7h7Mo.s 			page 2


  58 0008 00000000 		.long	_lasterr
  59              		.size	_set_lasterr, .-_set_lasterr
  60              		.section	.text.reconst_24,"ax",@progbits
  61              		.align 1
  62              		.global	_reconst_24
  63              		.type	_reconst_24, @function
  64              	_reconst_24:
  65 0000 6143     		mov	r4,r1	! data, tmp177
  66 0002 6214     		mov.b	@r1+,r2	! *data_2(D), *data_2(D)
  67 0004 7402     		add	#2,r4	!, tmp183
  68 0006 6110     		mov.b	@r1,r1	! MEM[(const u8 *)data_2(D) + 1B],
  69 0008 602C     		extu.b	r2,r0	! *data_2(D), tmp
  70 000a 611C     		extu.b	r1,r1	! MEM[(const u8 *)data_2(D) + 1B], tmp180
  71 000c 4118     		shll8	r1	!, tmp180
  72 000e 4028     		shll16	r0	!, tmp
  73 0010 201B     		or	r1,r0	! tmp180, tmp
  74 0012 6140     		mov.b	@r4,r1	! MEM[(const u8 *)data_2(D) + 2B],
  75 0014 4211     		cmp/pz	r2	! D.5185
  76 0016 611C     		extu.b	r1,r1	! MEM[(const u8 *)data_2(D) + 2B], MEM[(const u8 *)data_2(D) + 2B]
  77 0018 8D02     		bt.s	.L5	!
  78 001a 201B     		or	r1,r0	! MEM[(const u8 *)data_2(D) + 2B], tmp
  79 001c D101     		mov.l	.L6,r1	!, tmp187
  80 001e 201B     		or	r1,r0	! tmp187, tmp
  81              	.L5:
  82 0020 000B     		rts	
  83 0022 0009     		nop
  84              	.L7:
  85              		.align 2
  86              	.L6:
  87 0024 FF000000 		.long	-16777216
  88              		.size	_reconst_24, .-_reconst_24
  89              		.section	.text.iso_parserx,"ax",@progbits
  90              		.align 1
  91              		.global	_iso_parserx
  92              		.type	_iso_parserx, @function
  93              	_iso_parserx:
  94 0000 2F86     		mov.l	r8,@-r15	!,
  95 0002 675C     		extu.b	r5,r7	! newbyte, newbyte
  96 0004 2F96     		mov.l	r9,@-r15	!,
  97 0006 2FA6     		mov.l	r10,@-r15	!,
  98 0008 4F22     		sts.l	pr,@-r15	!,
  99 000a 5542     		mov.l	@(8,r4),r5	! msg_2(D)->hi, D.5145
 100 000c 2558     		tst	r5,r5	! D.5145
 101 000e 8F16     		bf.s	.L9	!
 102 0010 6843     		mov	r4,r8	! msg, msg
 103 0012 E101     		mov	#1,r1	!, tmp190
 104 0014 2412     		mov.l	r1,@r4	! tmp190, msg_2(D)->hdrlen
 105 0016 914B     		mov.w	.L19,r1	!,
 106 0018 2179     		and	r7,r1	! newbyte, tmp193
 107 001a 6013     		mov	r1,r0	! tmp193,
 108 001c 8840     		cmp/eq	#64,r0	!,
 109 001e 8D40     		bt.s	.L16	!
 110 0020 617E     		exts.b	r7,r1	! newbyte, newbyte
 111 0022 4111     		cmp/pz	r1	! newbyte
 112 0024 8D03     		bt.s	.L22	!
 113 0026 E13F     		mov	#63,r1	!, dl
 114 0028 E103     		mov	#3,r1	!, tmp195
Renesas / SuperH SH GAS Big Endian C:\Users\Bimbo\AppData\Local\Temp\ccP7h7Mo.s 			page 3


 115 002a 2412     		mov.l	r1,@r4	! tmp195, msg_2(D)->hdrlen
 116 002c E13F     		mov	#63,r1	!, dl
 117              	.L22:
 118 002e 2179     		and	r7,r1	! newbyte, dl
 119 0030 2118     		tst	r1,r1	! dl
 120 0032 8B03     		bf	.L12	!
 121 0034 6182     		mov.l	@r8,r1	! msg_2(D)->hdrlen, tmp197
 122 0036 7101     		add	#1,r1	!, tmp197
 123 0038 A001     		bra	.L9	!
 124 003a 2812     		mov.l	r1,@r8	! tmp197, msg_2(D)->hdrlen
 125              	.L12:
 126 003c 1811     		mov.l	r1,@(4,r8)	! dl, msg_2(D)->datalen
 127              	.L9:
 128 003e 6382     		mov.l	@r8,r3	! msg_2(D)->hdrlen, D.5156
 129 0040 3530     		cmp/eq	r3,r5	! D.5156, D.5145
 130 0042 8D0F     		bt.s	.L13	!
 131 0044 5281     		mov.l	@(4,r8),r2	! msg_2(D)->datalen, msg_2(D)->datalen
 132 0046 6183     		mov	r8,r1	! msg, tmp201
 133 0048 315C     		add	r5,r1	! D.5145, tmp201
 134 004a 7110     		add	#16,r1	!, tmp201
 135 004c 7501     		add	#1,r5	!, D.5165
 136 004e 2170     		mov.b	r7,@r1	! newbyte, msg_2(D)->hdr
 137 0050 2228     		tst	r2,r2	! msg_2(D)->datalen
 138 0052 8D02     		bt.s	.L14	!
 139 0054 1852     		mov.l	r5,@(8,r8)	! D.5165, msg_2(D)->hi
 140 0056 A025     		bra	.L10	!
 141 0058 E001     		mov	#1,r0	!, D.5152
 142              	.L14:
 143 005a 3530     		cmp/eq	r3,r5	! D.5156, D.5165
 144 005c 8B00     		bf	.L18	!
 145 005e 1871     		mov.l	r7,@(4,r8)	! newbyte, msg_2(D)->datalen
 146              	.L18:
 147 0060 A020     		bra	.L10	!
 148 0062 E001     		mov	#1,r0	!, D.5152
 149              	.L13:
 150 0064 5383     		mov.l	@(12,r8),r3	! msg_2(D)->di, D.5171
 151 0066 6183     		mov	r8,r1	! msg, tmp205
 152 0068 7201     		add	#1,r2	!, tmp206
 153 006a 313C     		add	r3,r1	! D.5171, tmp205
 154 006c 7114     		add	#20,r1	!, tmp205
 155 006e 2170     		mov.b	r7,@r1	! newbyte, msg_2(D)->data
 156 0070 6133     		mov	r3,r1	! D.5171, D.5172
 157 0072 7101     		add	#1,r1	!, D.5172
 158 0074 3120     		cmp/eq	r2,r1	! tmp206, D.5172
 159 0076 8FF3     		bf.s	.L18	!
 160 0078 1813     		mov.l	r1,@(12,r8)	! D.5172, msg_2(D)->di
 161 007a D90E     		mov.l	.L20,r9	!, tmp209
 162 007c 6483     		mov	r8,r4	! msg,
 163 007e 490B     		jsr	@r9	! tmp209
 164 0080 7410     		add	#16,r4	!,
 165 0082 6483     		mov	r8,r4	! msg,
 166 0084 6A03     		mov	r0,r10	!, tmp210
 167 0086 7414     		add	#20,r4	!,
 168 0088 490B     		jsr	@r9	! tmp209
 169 008a 5581     		mov.l	@(4,r8),r5	! msg_2(D)->datalen,
 170 008c 5181     		mov.l	@(4,r8),r1	! msg_2(D)->datalen, tmp221
 171 008e 30AC     		add	r10,r0	! tmp210, tmp217
Renesas / SuperH SH GAS Big Endian C:\Users\Bimbo\AppData\Local\Temp\ccP7h7Mo.s 			page 4


 172 0090 620C     		extu.b	r0,r2	! tmp217, tmp224
 173 0092 318C     		add	r8,r1	! msg, tmp221
 174 0094 7114     		add	#20,r1	!, tmp221
 175 0096 6110     		mov.b	@r1,r1	! msg_2(D)->data,
 176 0098 611C     		extu.b	r1,r1	! tmp223, tmp222
 177 009a 3120     		cmp/eq	r2,r1	! tmp224, tmp222
 178 009c 0029     		movt	r0	! D.5152
 179 009e A001     		bra	.L10	!
 180 00a0 300C     		add	r0,r0	! D.5152
 181              	.L16:
 182 00a2 E000     		mov	#0,r0	!, D.5152
 183              	.L10:
 184 00a4 4F26     		lds.l   @r15+,pr	!,
 185 00a6 6AF6     		mov.l   @r15+,r10	!,
 186 00a8 69F6     		mov.l   @r15+,r9	!,
 187 00aa 68F6     		mov.l   @r15+,r8	!,
 188 00ac 000B     		rts	
 189 00ae 0009     		nop
 190              		.align 1
 191              	.L19:
 192 00b0 00C0     		.short	192
 193              	.L21:
 194 00b2 0009     		.align 2
 195              	.L20:
 196 00b4 00000000 		.long	_cks_u8
 197              		.size	_iso_parserx, .-_iso_parserx
 198              		.section	.text.cmd_init,"ax",@progbits
 199              		.align 1
 200              		.global	_cmd_init
 201              		.type	_cmd_init, @function
 202              	_cmd_init:
 203 0000 D20C     		mov.l	.L24,r2	!, tmp168
 204 0002 E100     		mov	#0,r1	!, tmp169
 205 0004 644C     		extu.b	r4,r4	! brrdiv, brrdiv
 206 0006 2212     		mov.l	r1,@r2	! tmp169, cmstate
 207 0008 D20B     		mov.l	.L25,r2	!, tmp170
 208 000a 2212     		mov.l	r1,@r2	! tmp169, flashstate
 209 000c 9211     		mov.w	.L26,r2	!,
 210 000e 6123     		mov	r2,r1	! tmp172, tmp174
 211 0010 7102     		add	#2,r1	!, tmp174
 212 0012 6010     		mov.b	@r1,r0	! MEM[(volatile struct st_sci *)4294963200B].SCR.BYTE,
 213 0014 6323     		mov	r2,r3	! tmp172, tmp183
 214 0016 C9CF     		and	#207,r0	!, D.5139
 215 0018 2100     		mov.b	r0,@r1	! D.5139, MEM[(volatile struct st_sci *)4294963200B].SCR.BYTE
 216 001a 7301     		add	#1,r3	!, tmp183
 217 001c 2340     		mov.b	r4,@r3	! brrdiv, MEM[(volatile struct st_sci *)4294963200B].BRR
 218 001e 7204     		add	#4,r2	!, tmp186
 219 0020 6020     		mov.b	@r2,r0	! MEM[(volatile struct st_sci *)4294963200B].SSR.BYTE,
 220 0022 C987     		and	#135,r0	!, D.5141
 221 0024 2200     		mov.b	r0,@r2	! D.5141, MEM[(volatile struct st_sci *)4294963200B].SSR.BYTE
 222 0026 6010     		mov.b	@r1,r0	! MEM[(volatile struct st_sci *)4294963200B].SCR.BYTE,
 223 0028 600C     		extu.b	r0,r0	! MEM[(volatile struct st_sci *)4294963200B].SCR.BYTE, D.5143
 224 002a CB30     		or	#48,r0	!, D.5143
 225 002c 2100     		mov.b	r0,@r1	! D.5143, MEM[(volatile struct st_sci *)4294963200B].SCR.BYTE
 226 002e 000B     		rts	
 227 0030 0009     		nop
 228              		.align 1
Renesas / SuperH SH GAS Big Endian C:\Users\Bimbo\AppData\Local\Temp\ccP7h7Mo.s 			page 5


 229              	.L26:
 230 0032 F000     		.short	-4096
 231              	.L27:
 232              		.align 2
 233              	.L24:
 234 0034 00000000 		.long	_cmstate
 235              	.L25:
 236 0038 00000000 		.long	_flashstate
 237              		.size	_cmd_init, .-_cmd_init
 238              		.section	.text.cmd_startcomm,"ax",@progbits
 239              		.align 1
 240              		.global	_cmd_startcomm
 241              		.type	_cmd_startcomm, @function
 242              	_cmd_startcomm:
 243 0000 D105     		mov.l	.L29,r1	!, tmp161
 244 0002 4F22     		sts.l	pr,@-r15	!,
 245 0004 D405     		mov.l	.L30,r4	!,
 246 0006 410B     		jsr	@r1	! tmp161
 247 0008 E503     		mov	#3,r5	!,
 248 000a D105     		mov.l	.L31,r1	!, tmp162
 249 000c E200     		mov	#0,r2	!, tmp163
 250 000e 2122     		mov.l	r2,@r1	! tmp163, flashstate
 251 0010 4F26     		lds.l   @r15+,pr	!,
 252 0012 000B     		rts	
 253 0014 0009     		nop
 254              	.L32:
 255 0016 0009     		.align 2
 256              	.L29:
 257 0018 00000000 		.long	_iso_sendpkt
 258              	.L30:
 259 001c 00000004 		.long	_startcomm_resp.4853
 260              	.L31:
 261 0020 00000000 		.long	_flashstate
 262              		.size	_cmd_startcomm, .-_cmd_startcomm
 263              		.section	.text.cmd_dump,"ax",@progbits
 264              		.align 1
 265              		.global	_cmd_dump
 266              		.type	_cmd_dump, @function
 267              	_cmd_dump:
 268 0000 2F86     		mov.l	r8,@-r15	!,
 269 0002 2F96     		mov.l	r9,@-r15	!,
 270 0004 2FA6     		mov.l	r10,@-r15	!,
 271 0006 2FB6     		mov.l	r11,@-r15	!,
 272 0008 2FC6     		mov.l	r12,@-r15	!,
 273 000a 2FD6     		mov.l	r13,@-r15	!,
 274 000c 2FE6     		mov.l	r14,@-r15	!,
 275 000e 4F22     		sts.l	pr,@-r15	!,
 276 0010 5041     		mov.l	@(4,r4),r0	! msg_8(D)->datalen, msg_8(D)->datalen
 277 0012 8806     		cmp/eq	#6,r0	!, msg_8(D)->datalen
 278 0014 8F68     		bf.s	.L48	!
 279 0016 7FD8     		add	#-40,r15	!,
 280 0018 6143     		mov	r4,r1	! msg, tmp227
 281 001a 7116     		add	#22,r1	!, tmp227
 282 001c 6810     		mov.b	@r1,r8	! MEM[(u8 *)msg_8(D) + 22B],
 283 001e 7101     		add	#1,r1	!, tmp232
 284 0020 6110     		mov.b	@r1,r1	! MEM[(u8 *)msg_8(D) + 23B],
 285 0022 688C     		extu.b	r8,r8	! MEM[(u8 *)msg_8(D) + 22B], len
Renesas / SuperH SH GAS Big Endian C:\Users\Bimbo\AppData\Local\Temp\ccP7h7Mo.s 			page 6


 286 0024 611C     		extu.b	r1,r1	! MEM[(u8 *)msg_8(D) + 23B], MEM[(u8 *)msg_8(D) + 23B]
 287 0026 4818     		shll8	r8	!, len
 288 0028 281B     		or	r1,r8	! MEM[(u8 *)msg_8(D) + 23B], len
 289 002a 6143     		mov	r4,r1	! msg, tmp237
 290 002c 7118     		add	#24,r1	!, tmp237
 291 002e 6910     		mov.b	@r1,r9	! MEM[(u8 *)msg_8(D) + 24B],
 292 0030 7101     		add	#1,r1	!, tmp242
 293 0032 6110     		mov.b	@r1,r1	! MEM[(u8 *)msg_8(D) + 25B],
 294 0034 699C     		extu.b	r9,r9	! MEM[(u8 *)msg_8(D) + 24B], addr
 295 0036 7415     		add	#21,r4	!, tmp247
 296 0038 4918     		shll8	r9	!, addr
 297 003a 611C     		extu.b	r1,r1	! MEM[(u8 *)msg_8(D) + 25B], MEM[(u8 *)msg_8(D) + 25B]
 298 003c 6040     		mov.b	@r4,r0	! MEM[(u8 *)msg_8(D) + 21B],
 299 003e 291B     		or	r1,r9	! MEM[(u8 *)msg_8(D) + 25B], addr
 300 0040 4808     		shll2	r8	!, len
 301 0042 4908     		shll2	r9	!, addr
 302 0044 600C     		extu.b	r0,r0	! MEM[(u8 *)msg_8(D) + 21B], MEM[(u8 *)msg_8(D) + 21B]
 303 0046 388C     		add	r8,r8	! len
 304 0048 399C     		add	r9,r9	! addr
 305 004a 2008     		tst	r0,r0	! MEM[(u8 *)msg_8(D) + 21B]
 306 004c 4808     		shll2	r8	!, len
 307 004e 8D05     		bt.s	.L37	!
 308 0050 4908     		shll2	r9	!, addr
 309 0052 8801     		cmp/eq	#1,r0	!, MEM[(u8 *)msg_8(D) + 21B]
 310 0054 8F48     		bf.s	.L48	!
 311 0056 E2FD     		mov	#-3,r2	!, tmp271
 312 0058 A02E     		bra	.L38
 313 005a 0009     		nop	!
 314              	.L37:
 315 005c E1FE     		mov	#-2,r1	!, tmp250
 316 005e 4901     		shlr	r9	! addr
 317 0060 DD29     		mov.l	.L49,r13	!, tmp286
 318 0062 DE2A     		mov.l	.L53,r14	!, tmp287
 319 0064 A023     		bra	.L39	!
 320 0066 2819     		and	r1,r8	! tmp250, len
 321              	.L43:
 322 0068 7107     		add	#7,r1	!, tmp253
 323 006a E2FD     		mov	#-3,r2	!, tmp254
 324 006c 2120     		mov.b	r2,@r1	! tmp254, MEM[(u8 *)&pbuf + 1B]
 325 006e E120     		mov	#32,r1	!, tmp255
 326 0070 3817     		cmp/gt	r1,r8	! tmp255, len
 327 0072 8F01     		bf.s	.L40	!
 328 0074 6B83     		mov	r8,r11	! len, pktlen
 329 0076 EB20     		mov	#32,r11	!, pktlen
 330              	.L40:
 331 0078 6AB3     		mov	r11,r10	! pktlen, tmp259
 332 007a 4A04     		rotl	r10	! tmp259
 333 007c 0A29     		movt	r10	! tmp259
 334 007e 3ABC     		add	r11,r10	! pktlen, tmp259
 335 0080 61F3     		mov	r15,r1	!, ivtmp.48
 336 0082 4A21     		shar	r10	! tmp259
 337 0084 7108     		add	#8,r1	!, ivtmp.48
 338 0086 A008     		bra	.L41	!
 339 0088 EC00     		mov	#0,r12	!, ecur
 340              	.L42:
 341 008a 349C     		add	r9,r4	! addr, tmp263
 342 008c 6513     		mov	r1,r5	! ivtmp.48,
Renesas / SuperH SH GAS Big Endian C:\Users\Bimbo\AppData\Local\Temp\ccP7h7Mo.s 			page 7


 343 008e 2F12     		mov.l	r1,@r15	!,
 344 0090 4D0B     		jsr	@r13	! tmp286
 345 0092 644C     		extu.b	r4,r4	! tmp263,
 346 0094 61F2     		mov.l	@r15,r1	!,
 347 0096 7C01     		add	#1,r12	!, ecur
 348 0098 7102     		add	#2,r1	!, ivtmp.48
 349              	.L41:
 350 009a 3CA3     		cmp/ge	r10,r12	! tmp259, ecur
 351 009c 8FF5     		bf.s	.L42	!
 352 009e 64C3     		mov	r12,r4	! ecur, tmp263
 353 00a0 64F3     		mov	r15,r4	!,
 354 00a2 65B3     		mov	r11,r5	! pktlen,
 355 00a4 7407     		add	#7,r4	!,
 356 00a6 7501     		add	#1,r5	!,
 357 00a8 4E0B     		jsr	@r14	! tmp287
 358 00aa 38B8     		sub	r11,r8	! pktlen, len
 359 00ac 39AC     		add	r10,r9	! tmp259, addr
 360              	.L39:
 361 00ae 2888     		tst	r8,r8	! len
 362 00b0 8FDA     		bf.s	.L43	!
 363 00b2 61F3     		mov	r15,r1	!, tmp253
 364 00b4 A01C     		bra	.L33
 365 00b6 0009     		nop	!
 366              	.L38:
 367 00b8 D115     		mov.l	.L55,r1	!, tmp270
 368 00ba DC16     		mov.l	.L52,r12	!, tmp288
 369 00bc DB13     		mov.l	.L53,r11	!, tmp289
 370 00be A00E     		bra	.L44	!
 371 00c0 2120     		mov.b	r2,@r1	! tmp271, txbuf
 372              	.L46:
 373 00c2 3817     		cmp/gt	r1,r8	! tmp272, len
 374 00c4 8F01     		bf.s	.L45	!
 375 00c6 6A83     		mov	r8,r10	! len, pktlen
 376 00c8 EA20     		mov	#32,r10	!, pktlen
 377              	.L45:
 378 00ca 6593     		mov	r9,r5	! addr,
 379 00cc D412     		mov.l	.L54,r4	!,
 380 00ce 4C0B     		jsr	@r12	! tmp288
 381 00d0 66A3     		mov	r10,r6	! pktlen,
 382 00d2 65A3     		mov	r10,r5	! pktlen,
 383 00d4 D40E     		mov.l	.L55,r4	!,
 384 00d6 7501     		add	#1,r5	!,
 385 00d8 4B0B     		jsr	@r11	! tmp289
 386 00da 38A8     		sub	r10,r8	! pktlen, len
 387 00dc 39AC     		add	r10,r9	! pktlen, addr
 388              	.L44:
 389 00de 2888     		tst	r8,r8	! len
 390 00e0 8FEF     		bf.s	.L46	!
 391 00e2 E120     		mov	#32,r1	!, tmp272
 392 00e4 A004     		bra	.L33
 393 00e6 0009     		nop	!
 394              	.L48:
 395 00e8 D10C     		mov.l	.L56,r1	!, tmp284
 396 00ea 940C     		mov.w	.L57,r4	!,
 397 00ec 410B     		jsr	@r1	! tmp284
 398 00ee E512     		mov	#18,r5	!,
 399              	.L33:
Renesas / SuperH SH GAS Big Endian C:\Users\Bimbo\AppData\Local\Temp\ccP7h7Mo.s 			page 8


 400 00f0 7F28     		add	#40,r15	!,
 401 00f2 4F26     		lds.l   @r15+,pr	!,
 402 00f4 6EF6     		mov.l   @r15+,r14	!,
 403 00f6 6DF6     		mov.l   @r15+,r13	!,
 404 00f8 6CF6     		mov.l   @r15+,r12	!,
 405 00fa 6BF6     		mov.l   @r15+,r11	!,
 406 00fc 6AF6     		mov.l   @r15+,r10	!,
 407 00fe 69F6     		mov.l   @r15+,r9	!,
 408 0100 68F6     		mov.l   @r15+,r8	!,
 409 0102 000B     		rts	
 410 0104 0009     		nop
 411              		.align 1
 412              	.L57:
 413 0106 00BD     		.short	189
 414              	.L58:
 415              		.align 2
 416              	.L49:
 417 0108 00000000 		.long	_eep_read16
 418              	.L53:
 419 010c 00000000 		.long	_iso_sendpkt
 420              	.L55:
 421 0110 00000000 		.long	_txbuf
 422              	.L52:
 423 0114 00000000 		.long	_memcpy
 424              	.L54:
 425 0118 00000001 		.long	_txbuf+1
 426              	.L56:
 427 011c 00000000 		.long	_tx_7F
 428              		.size	_cmd_dump, .-_cmd_dump
 429              		.section	.text.cmd_flash_init,"ax",@progbits
 430              		.align 1
 431              		.global	_cmd_flash_init
 432              		.type	_cmd_flash_init, @function
 433              	_cmd_flash_init:
 434 0000 2F86     		mov.l	r8,@-r15	!,
 435 0002 4F22     		sts.l	pr,@-r15	!,
 436 0004 D00E     		mov.l	.L62,r0	!, tmp164
 437 0006 7FFC     		add	#-4,r15	!,
 438 0008 68F3     		mov	r15,r8	!, tmp163
 439 000a 7803     		add	#3,r8	!, tmp163
 440 000c 400B     		jsr	@r0	! tmp164
 441 000e 6483     		mov	r8,r4	! tmp163,
 442 0010 2008     		tst	r0,r0	! tmp165
 443 0012 8F07     		bf.s	.L60	!
 444 0014 E174     		mov	#116,r1	!, tmp173
 445 0016 D10B     		mov.l	.L63,r1	!, tmp171
 446 0018 E434     		mov	#52,r4	!,
 447 001a 6580     		mov.b	@r8,r5	! errval,
 448 001c 410B     		jsr	@r1	! tmp171
 449 001e 655C     		extu.b	r5,r5	! errval,
 450 0020 A008     		bra	.L59
 451 0022 0009     		nop	!
 452              	.L60:
 453 0024 D408     		mov.l	.L64,r4	!, tmp172
 454 0026 2410     		mov.b	r1,@r4	! tmp173, txbuf
 455 0028 D108     		mov.l	.L65,r1	!, tmp175
 456 002a 410B     		jsr	@r1	! tmp175
Renesas / SuperH SH GAS Big Endian C:\Users\Bimbo\AppData\Local\Temp\ccP7h7Mo.s 			page 9


 457 002c E501     		mov	#1,r5	!,
 458 002e D108     		mov.l	.L66,r1	!, tmp176
 459 0030 E201     		mov	#1,r2	!, tmp177
 460 0032 2122     		mov.l	r2,@r1	! tmp177, flashstate
 461              	.L59:
 462 0034 7F04     		add	#4,r15	!,
 463 0036 4F26     		lds.l   @r15+,pr	!,
 464 0038 68F6     		mov.l   @r15+,r8	!,
 465 003a 000B     		rts	
 466 003c 0009     		nop
 467              	.L67:
 468 003e 0009     		.align 2
 469              	.L62:
 470 0040 00000000 		.long	_platf_flash_init
 471              	.L63:
 472 0044 00000000 		.long	_tx_7F
 473              	.L64:
 474 0048 00000000 		.long	_txbuf
 475              	.L65:
 476 004c 00000000 		.long	_iso_sendpkt
 477              	.L66:
 478 0050 00000000 		.long	_flashstate
 479              		.size	_cmd_flash_init, .-_cmd_flash_init
 480              		.section	.text.cmd_romcrc,"ax",@progbits
 481              		.align 1
 482              		.global	_cmd_romcrc
 483              		.type	_cmd_romcrc, @function
 484              	_cmd_romcrc:
 485 0000 2F86     		mov.l	r8,@-r15	!,
 486 0002 6243     		mov	r4,r2	! data, tmp259
 487 0004 2F96     		mov.l	r9,@-r15	!,
 488 0006 6843     		mov	r4,r8	! data, data
 489 0008 2FA6     		mov.l	r10,@-r15	!,
 490 000a 2FB6     		mov.l	r11,@-r15	!,
 491 000c 6B43     		mov	r4,r11	! data, D.5298
 492 000e 2FC6     		mov.l	r12,@-r15	!,
 493 0010 7B08     		add	#8,r11	!, D.5298
 494 0012 4F22     		sts.l	pr,@-r15	!,
 495 0014 6124     		mov.b	@r2+,r1	! *data_5(D),
 496 0016 6920     		mov.b	@r2,r9	! MEM[(const u8 *)data_5(D) + 1B],
 497 0018 611C     		extu.b	r1,r1	! *data_5(D), tmp257
 498 001a DC11     		mov.l	.L73,r12	!, tmp279
 499 001c 4118     		shll8	r1	!, tmp257
 500 001e 699C     		extu.b	r9,r9	! MEM[(const u8 *)data_5(D) + 1B], chunkno
 501 0020 291B     		or	r1,r9	! tmp257, chunkno
 502              	.L70:
 503 0022 7802     		add	#2,r8	!, data
 504 0024 6283     		mov	r8,r2	! data, tmp267
 505 0026 6124     		mov.b	@r2+,r1	! MEM[base: data_16, offset: 0B],
 506 0028 6493     		mov	r9,r4	! chunkno,
 507 002a 6A20     		mov.b	@r2,r10	! MEM[base: D.5297_58, offset: 0B],
 508 002c 611C     		extu.b	r1,r1	! MEM[base: data_16, offset: 0B], tmp266
 509 002e 4118     		shll8	r1	!, tmp266
 510 0030 6AAC     		extu.b	r10,r10	! MEM[base: D.5297_58, offset: 0B], test_crc
 511 0032 2A1B     		or	r1,r10	! tmp266, test_crc
 512 0034 9512     		mov.w	.L74,r5	!,
 513 0036 4C0B     		jsr	@r12	! tmp279
Renesas / SuperH SH GAS Big Endian C:\Users\Bimbo\AppData\Local\Temp\ccP7h7Mo.s 			page 10


 514 0038 4418     		shll8	r4	!,
 515 003a 30A0     		cmp/eq	r10,r0	! test_crc, tmp275
 516 003c 8B05     		bf	.L71	!
 517 003e 7901     		add	#1,r9	!, tmp277
 518 0040 38B0     		cmp/eq	r11,r8	! D.5298, data
 519 0042 8FEE     		bf.s	.L70	!
 520 0044 699D     		extu.w	r9,r9	! tmp277, chunkno
 521 0046 A001     		bra	.L69	!
 522 0048 E000     		mov	#0,r0	!, D.5085
 523              	.L71:
 524 004a E0FF     		mov	#-1,r0	!, D.5085
 525              	.L69:
 526 004c 4F26     		lds.l   @r15+,pr	!,
 527 004e 6CF6     		mov.l   @r15+,r12	!,
 528 0050 6BF6     		mov.l   @r15+,r11	!,
 529 0052 6AF6     		mov.l   @r15+,r10	!,
 530 0054 69F6     		mov.l   @r15+,r9	!,
 531 0056 68F6     		mov.l   @r15+,r8	!,
 532 0058 000B     		rts	
 533 005a 0009     		nop
 534              		.align 1
 535              	.L74:
 536 005c 0100     		.short	256
 537              	.L75:
 538 005e 0009     		.align 2
 539              	.L73:
 540 0060 00000000 		.long	_crc16
 541              		.size	_cmd_romcrc, .-_cmd_romcrc
 542              		.section	.text.cmd_flash_utils,"ax",@progbits
 543              		.align 1
 544              		.global	_cmd_flash_utils
 545              		.type	_cmd_flash_utils, @function
 546              	_cmd_flash_utils:
 547 0000 2F86     		mov.l	r8,@-r15	!,
 548 0002 2F96     		mov.l	r9,@-r15	!,
 549 0004 D135     		mov.l	.L100,r1	!, tmp189
 550 0006 4F22     		sts.l	pr,@-r15	!,
 551 0008 6112     		mov.l	@r1,r1	! flashstate, flashstate
 552 000a 6013     		mov	r1,r0	! flashstate,
 553 000c 8801     		cmp/eq	#1,r0	!,
 554 000e 8F52     		bf.s	.L84	!
 555 0010 6843     		mov	r4,r8	! msg, msg
 556 0012 5241     		mov.l	@(4,r4),r2	! msg_5(D)->datalen, D.5034
 557 0014 3217     		cmp/gt	r1,r2	! flashstate, D.5034
 558 0016 8F52     		bf.s	.L90	!
 559 0018 6143     		mov	r4,r1	! msg, tmp194
 560 001a 7115     		add	#21,r1	!, tmp194
 561 001c 6110     		mov.b	@r1,r1	! msg_5(D)->data,
 562 001e 611C     		extu.b	r1,r1	! msg_5(D)->data, msg_5(D)->data
 563 0020 6013     		mov	r1,r0	! msg_5(D)->data,
 564 0022 8802     		cmp/eq	#2,r0	!,
 565 0024 8D0D     		bt.s	.L79	!
 566 0026 8855     		cmp/eq	#85,r0	!,
 567 0028 8D33     		bt.s	.L80	!
 568 002a 8801     		cmp/eq	#1,r0	!,
 569 002c 8B47     		bf	.L90	!
 570 002e 6023     		mov	r2,r0	! D.5034,
Renesas / SuperH SH GAS Big Endian C:\Users\Bimbo\AppData\Local\Temp\ccP7h7Mo.s 			page 11


 571 0030 8803     		cmp/eq	#3,r0	!,
 572 0032 8F44     		bf.s	.L90	!
 573 0034 7816     		add	#22,r8	!, tmp199
 574 0036 D02A     		mov.l	.L101,r0	!, tmp202
 575 0038 6480     		mov.b	@r8,r4	! msg_5(D)->data,
 576 003a 400B     		jsr	@r0	! tmp202
 577 003c 644C     		extu.b	r4,r4	! msg_5(D)->data,
 578 003e A024     		bra	.L114	!
 579 0040 2008     		tst	r0,r0	! rv
 580              	.L79:
 581 0042 9145     		mov.w	.L102,r1	!,
 582 0044 3210     		cmp/eq	r1,r2	! tmp203, D.5034
 583 0046 8F3A     		bf.s	.L90	!
 584 0048 6943     		mov	r4,r9	! msg, tmp204
 585 004a D026     		mov.l	.L103,r0	!, tmp206
 586 004c 7916     		add	#22,r9	!, tmp204
 587 004e 9540     		mov.w	.L104,r5	!,
 588 0050 400B     		jsr	@r0	! tmp206
 589 0052 6493     		mov	r9,r4	! tmp204,
 590 0054 913E     		mov.w	.L105,r1	!,
 591 0056 6203     		mov	r0,r2	!, tmp207
 592 0058 6013     		mov	r1,r0	! tmp211,
 593 005a 018C     		mov.b	@(r0,r8),r1	! msg_5(D)->data,
 594 005c 611C     		extu.b	r1,r1	! msg_5(D)->data, msg_5(D)->data
 595 005e 3120     		cmp/eq	r2,r1	! tmp207, msg_5(D)->data
 596 0060 8F2B     		bf.s	.L89	!
 597 0062 6283     		mov	r8,r2	! msg, tmp220
 598 0064 7217     		add	#23,r2	!, tmp220
 599 0066 6190     		mov.b	@r9,r1	! msg_5(D)->data,
 600 0068 6583     		mov	r8,r5	! msg,
 601 006a 6220     		mov.b	@r2,r2	! msg_5(D)->data,
 602 006c 611C     		extu.b	r1,r1	! msg_5(D)->data, tmp224
 603 006e 622C     		extu.b	r2,r2	! msg_5(D)->data, tmp223
 604 0070 4218     		shll8	r2	!, tmp223
 605 0072 4128     		shll16	r1	!, tmp224
 606 0074 212B     		or	r2,r1	! tmp223, tmp224
 607 0076 6283     		mov	r8,r2	! msg, tmp226
 608 0078 7218     		add	#24,r2	!, tmp226
 609 007a 6420     		mov.b	@r2,r4	! msg_5(D)->data,
 610 007c 7519     		add	#25,r5	!,
 611 007e D01A     		mov.l	.L106,r0	!, tmp232
 612 0080 644C     		extu.b	r4,r4	! msg_5(D)->data, msg_5(D)->data
 613 0082 9628     		mov.w	.L107,r6	!,
 614 0084 400B     		jsr	@r0	! tmp232
 615 0086 241B     		or	r1,r4	! tmp224,
 616 0088 2008     		tst	r0,r0	! rv
 617              	.L114:
 618 008a 8D0E     		bt.s	.L82	!
 619 008c 600C     		extu.b	r0,r0	! rv, rv
 620 008e A017     		bra	.L77	!
 621 0090 CB80     		or	#128,r0	!, rv
 622              	.L80:
 623 0092 6023     		mov	r2,r0	! D.5034,
 624 0094 8803     		cmp/eq	#3,r0	!,
 625 0096 8F13     		bf.s	.L77	!
 626 0098 E012     		mov	#18,r0	!, rv
 627 009a 7816     		add	#22,r8	!, tmp235
Renesas / SuperH SH GAS Big Endian C:\Users\Bimbo\AppData\Local\Temp\ccP7h7Mo.s 			page 12


 628 009c 6080     		mov.b	@r8,r0	! msg_5(D)->data, tmp238
 629 009e 88AA     		cmp/eq	#-86,r0	!, tmp238
 630 00a0 8F0E     		bf.s	.L91	!
 631 00a2 E035     		mov	#53,r0	!, rv
 632 00a4 D111     		mov.l	.L108,r1	!, tmp239
 633 00a6 410B     		jsr	@r1
 634 00a8 0009     		nop	! tmp239
 635              	.L82:
 636 00aa D411     		mov.l	.L109,r4	!, tmp240
 637 00ac E1FC     		mov	#-4,r1	!, tmp241
 638 00ae 2410     		mov.b	r1,@r4	! tmp241, txbuf
 639 00b0 D110     		mov.l	.L110,r1	!, tmp243
 640 00b2 A008     		bra	.L97	!
 641 00b4 E501     		mov	#1,r5	!,
 642              	.L84:
 643 00b6 A003     		bra	.L77	!
 644 00b8 E022     		mov	#34,r0	!, rv
 645              	.L89:
 646 00ba A001     		bra	.L77	!
 647 00bc E077     		mov	#119,r0	!, rv
 648              	.L90:
 649 00be E012     		mov	#18,r0	!, rv
 650              	.L91:
 651              	.L77:
 652 00c0 940A     		mov.w	.L111,r4	!,
 653 00c2 6503     		mov	r0,r5	! rv,
 654 00c4 D10C     		mov.l	.L112,r1	!, tmp245
 655              	.L97:
 656 00c6 4F26     		lds.l   @r15+,pr	!,
 657 00c8 69F6     		mov.l   @r15+,r9	!,
 658 00ca 68F6     		mov.l   @r15+,r8	!,
 659 00cc 412B     		jmp	@r1
 660 00ce 0009     		nop	! tmp245
 661              		.align 1
 662              	.L102:
 663 00d0 0086     		.short	134
 664              	.L104:
 665 00d2 0083     		.short	131
 666              	.L105:
 667 00d4 0099     		.short	153
 668              	.L107:
 669 00d6 0080     		.short	128
 670              	.L111:
 671 00d8 00BC     		.short	188
 672              	.L113:
 673 00da 0009     		.align 2
 674              	.L100:
 675 00dc 00000000 		.long	_flashstate
 676              	.L101:
 677 00e0 00000000 		.long	_platf_flash_eb
 678              	.L103:
 679 00e4 00000000 		.long	_cks_add8
 680              	.L106:
 681 00e8 00000000 		.long	_platf_flash_wb
 682              	.L108:
 683 00ec 00000000 		.long	_platf_flash_unprotect
 684              	.L109:
Renesas / SuperH SH GAS Big Endian C:\Users\Bimbo\AppData\Local\Temp\ccP7h7Mo.s 			page 13


 685 00f0 00000000 		.long	_txbuf
 686              	.L110:
 687 00f4 00000000 		.long	_iso_sendpkt
 688              	.L112:
 689 00f8 00000000 		.long	_tx_7F
 690              		.size	_cmd_flash_utils, .-_cmd_flash_utils
 691              		.section	.text.cmd_rmba,"ax",@progbits
 692              		.align 1
 693              		.global	_cmd_rmba
 694              		.type	_cmd_rmba, @function
 695              	_cmd_rmba:
 696 0000 2F86     		mov.l	r8,@-r15	!,
 697 0002 2F96     		mov.l	r9,@-r15	!,
 698 0004 2FA6     		mov.l	r10,@-r15	!,
 699 0006 2FB6     		mov.l	r11,@-r15	!,
 700 0008 4F22     		sts.l	pr,@-r15	!,
 701 000a 5041     		mov.l	@(4,r4),r0	! msg_1(D)->datalen, msg_1(D)->datalen
 702 000c 8805     		cmp/eq	#5,r0	!, msg_1(D)->datalen
 703 000e 8F2B     		bf.s	.L116	!
 704 0010 6943     		mov	r4,r9	! msg, msg
 705 0012 6143     		mov	r4,r1	! msg, tmp178
 706 0014 7118     		add	#24,r1	!, tmp178
 707 0016 6810     		mov.b	@r1,r8	! msg_1(D)->data,
 708 0018 688C     		extu.b	r8,r8	! msg_1(D)->data, D.5021
 709 001a 2888     		tst	r8,r8	! D.5021
 710 001c 8924     		bt	.L116	!
 711 001e 912D     		mov.w	.L121,r1	!,
 712 0020 3817     		cmp/gt	r1,r8	! tmp180, D.5021
 713 0022 8D21     		bt.s	.L116	!
 714 0024 6B43     		mov	r4,r11	! msg, tmp181
 715 0026 D016     		mov.l	.L122,r0	!, tmp182
 716 0028 7B15     		add	#21,r11	!, tmp181
 717 002a DA16     		mov.l	.L123,r10	!, tmp183
 718 002c 400B     		jsr	@r0	! tmp182
 719 002e 64B3     		mov	r11,r4	! tmp181,
 720 0030 6503     		mov	r0,r5	!, addr
 721 0032 D015     		mov.l	.L124,r0	!, tmp189
 722 0034 E163     		mov	#99,r1	!, tmp184
 723 0036 64A3     		mov	r10,r4	! tmp183,
 724 0038 2A10     		mov.b	r1,@r10	! tmp184, txbuf
 725 003a 7401     		add	#1,r4	!,
 726 003c 400B     		jsr	@r0	! tmp189
 727 003e 6683     		mov	r8,r6	! D.5021,
 728 0040 61A3     		mov	r10,r1	! tmp183, tmp194
 729 0042 318C     		add	r8,r1	! D.5021, tmp194
 730 0044 63B0     		mov.b	@r11,r3	! msg_1(D)->data,
 731 0046 6213     		mov	r1,r2	! tmp194, tmp195
 732 0048 7201     		add	#1,r2	!, tmp195
 733 004a 2230     		mov.b	r3,@r2	! msg_1(D)->data, txbuf
 734 004c 6393     		mov	r9,r3	! msg, tmp204
 735 004e 7316     		add	#22,r3	!, tmp204
 736 0050 6330     		mov.b	@r3,r3	! msg_1(D)->data,
 737 0052 7201     		add	#1,r2	!, tmp202
 738 0054 2230     		mov.b	r3,@r2	! msg_1(D)->data, txbuf
 739 0056 7917     		add	#23,r9	!, tmp211
 740 0058 6290     		mov.b	@r9,r2	! msg_1(D)->data,
 741 005a 7103     		add	#3,r1	!, tmp209
Renesas / SuperH SH GAS Big Endian C:\Users\Bimbo\AppData\Local\Temp\ccP7h7Mo.s 			page 14


 742 005c 6583     		mov	r8,r5	! D.5021,
 743 005e 2120     		mov.b	r2,@r1	! msg_1(D)->data, txbuf
 744 0060 64A3     		mov	r10,r4	! tmp183,
 745 0062 D10A     		mov.l	.L125,r1	!, tmp215
 746 0064 A003     		bra	.L120	!
 747 0066 7504     		add	#4,r5	!,
 748              	.L116:
 749 0068 D109     		mov.l	.L126,r1	!, tmp216
 750 006a E423     		mov	#35,r4	!,
 751 006c E512     		mov	#18,r5	!,
 752              	.L120:
 753 006e 4F26     		lds.l   @r15+,pr	!,
 754 0070 6BF6     		mov.l   @r15+,r11	!,
 755 0072 6AF6     		mov.l   @r15+,r10	!,
 756 0074 69F6     		mov.l   @r15+,r9	!,
 757 0076 68F6     		mov.l   @r15+,r8	!,
 758 0078 412B     		jmp	@r1
 759 007a 0009     		nop	! tmp216
 760              		.align 1
 761              	.L121:
 762 007c 00FB     		.short	251
 763              	.L127:
 764 007e 0009     		.align 2
 765              	.L122:
 766 0080 00000000 		.long	_reconst_24
 767              	.L123:
 768 0084 00000000 		.long	_txbuf
 769              	.L124:
 770 0088 00000000 		.long	_memcpy
 771              	.L125:
 772 008c 00000000 		.long	_iso_sendpkt
 773              	.L126:
 774 0090 00000000 		.long	_tx_7F
 775              		.size	_cmd_rmba, .-_cmd_rmba
 776              		.section	.text.cmd_wmba,"ax",@progbits
 777              		.align 1
 778              		.global	_cmd_wmba
 779              		.type	_cmd_wmba, @function
 780              	_cmd_wmba:
 781 0000 2F86     		mov.l	r8,@-r15	!,
 782 0002 E205     		mov	#5,r2	!, tmp175
 783 0004 2F96     		mov.l	r9,@-r15	!,
 784 0006 4F22     		sts.l	pr,@-r15	!,
 785 0008 5141     		mov.l	@(4,r4),r1	! msg_3(D)->datalen, D.5003
 786 000a 3127     		cmp/gt	r2,r1	! tmp175, D.5003
 787 000c 8F24     		bf.s	.L132	!
 788 000e 6843     		mov	r4,r8	! msg, msg
 789 0010 6243     		mov	r4,r2	! msg, tmp177
 790 0012 7218     		add	#24,r2	!, tmp177
 791 0014 6920     		mov.b	@r2,r9	! msg_3(D)->data,
 792 0016 699C     		extu.b	r9,r9	! msg_3(D)->data, siz
 793 0018 6393     		mov	r9,r3	! siz, tmp179
 794 001a 9227     		mov.w	.L135,r2	!,
 795 001c 73FF     		add	#-1,r3	!, tmp179
 796 001e 633C     		extu.b	r3,r3	! tmp179, tmp180
 797 0020 3326     		cmp/hi	r2,r3	! tmp181, tmp180
 798 0022 8D1C     		bt.s	.L129	!
Renesas / SuperH SH GAS Big Endian C:\Users\Bimbo\AppData\Local\Temp\ccP7h7Mo.s 			page 15


 799 0024 E512     		mov	#18,r5	!, rv
 800 0026 6293     		mov	r9,r2	! siz, tmp182
 801 0028 7205     		add	#5,r2	!, tmp182
 802 002a 3120     		cmp/eq	r2,r1	! tmp182, D.5003
 803 002c 8B17     		bf	.L129	!
 804 002e D010     		mov.l	.L136,r0	!, tmp184
 805 0030 400B     		jsr	@r0	! tmp184
 806 0032 7415     		add	#21,r4	!,
 807 0034 D10F     		mov.l	.L137,r1	!, tmp185
 808 0036 921A     		mov.w	.L138,r2	!,
 809 0038 310C     		add	r0,r1	! addr, tmp185
 810 003a 3126     		cmp/hi	r2,r1	! tmp187, tmp185
 811 003c 8D0E     		bt.s	.L133	!
 812 003e 6403     		mov	r0,r4	!, addr
 813 0040 D00D     		mov.l	.L139,r0	!, tmp192
 814 0042 6583     		mov	r8,r5	! msg,
 815 0044 7519     		add	#25,r5	!,
 816 0046 400B     		jsr	@r0	! tmp192
 817 0048 6693     		mov	r9,r6	! siz,
 818 004a 6483     		mov	r8,r4	! msg, tmp196
 819 004c E17D     		mov	#125,r1	!, tmp197
 820 004e 7414     		add	#20,r4	!, tmp196
 821 0050 2410     		mov.b	r1,@r4	! tmp197, msg_3(D)->data
 822 0052 D10A     		mov.l	.L140,r1	!, tmp199
 823 0054 A005     		bra	.L134	!
 824 0056 E504     		mov	#4,r5	!,
 825              	.L132:
 826 0058 A001     		bra	.L129	!
 827 005a E512     		mov	#18,r5	!, rv
 828              	.L133:
 829 005c E542     		mov	#66,r5	!, rv
 830              	.L129:
 831 005e D108     		mov.l	.L141,r1	!, tmp200
 832 0060 E43D     		mov	#61,r4	!,
 833              	.L134:
 834 0062 4F26     		lds.l   @r15+,pr	!,
 835 0064 69F6     		mov.l   @r15+,r9	!,
 836 0066 68F6     		mov.l   @r15+,r8	!,
 837 0068 412B     		jmp	@r1
 838 006a 0009     		nop	! tmp200
 839              		.align 1
 840              	.L135:
 841 006c 00F9     		.short	249
 842              	.L138:
 843 006e 2FFF     		.short	12287
 844              	.L142:
 845              		.align 2
 846              	.L136:
 847 0070 00000000 		.long	_reconst_24
 848              	.L137:
 849 0074 00008000 		.long	32768
 850              	.L139:
 851 0078 00000000 		.long	_memcpy
 852              	.L140:
 853 007c 00000000 		.long	_iso_sendpkt
 854              	.L141:
 855 0080 00000000 		.long	_tx_7F
Renesas / SuperH SH GAS Big Endian C:\Users\Bimbo\AppData\Local\Temp\ccP7h7Mo.s 			page 16


 856              		.size	_cmd_wmba, .-_cmd_wmba
 857              		.section	.text.cmd_conf,"ax",@progbits
 858              		.align 1
 859              		.global	_cmd_conf
 860              		.type	_cmd_conf, @function
 861              	_cmd_conf:
 862 0000 2F86     		mov.l	r8,@-r15	!,
 863 0002 E1FE     		mov	#-2,r1	!, tmp181
 864 0004 4F22     		sts.l	pr,@-r15	!,
 865 0006 5241     		mov.l	@(4,r4),r2	! msg_1(D)->datalen, D.4980
 866 0008 7FFC     		add	#-4,r15	!,
 867 000a 2F10     		mov.b	r1,@r15	! tmp181, resp
 868 000c E101     		mov	#1,r1	!, tmp182
 869 000e 3217     		cmp/gt	r1,r2	! tmp182, D.4980
 870 0010 8F51     		bf.s	.L144	!
 871 0012 6843     		mov	r4,r8	! msg, msg
 872 0014 6143     		mov	r4,r1	! msg, tmp184
 873 0016 7115     		add	#21,r1	!, tmp184
 874 0018 6110     		mov.b	@r1,r1	! msg_1(D)->data,
 875 001a E304     		mov	#4,r3	!, tmp188
 876 001c 611C     		extu.b	r1,r1	! msg_1(D)->data, msg_1(D)->data
 877 001e 71FF     		add	#-1,r1	!, msg_1(D)->data
 878 0020 3136     		cmp/hi	r3,r1	! tmp188, msg_1(D)->data
 879 0022 8948     		bt	.L144	!
 880 0024 C702     		mova	.L149,r0	!
 881 0026 011C     		mov.b	@(r0,r1),r1	! msg_1(D)->data, tmp190
 882 0028 611C     		extu.b	r1,r1	! tmp190
 883 002a 0123     		braf	r1
 884 002c 0009     		nop	! tmp190
 885              	.L150:
 886 002e 0009     		.align 2
 887              	.L149:
 888 0030 08       		.byte	.L145-.L150
 889 0031 24       		.byte	.L146-.L150
 890 0032 52       		.byte	.L147-.L150
 891 0033 88       		.byte	.L144-.L150
 892 0034 70       		.byte	.L148-.L150
 893 0035 00       		.align 1
 894              	.L145:
 895 0036 D125     		mov.l	.L163,r1	!, tmp194
 896 0038 64F3     		mov	r15,r4	!,
 897 003a 410B     		jsr	@r1	! tmp194
 898 003c E501     		mov	#1,r5	!,
 899 003e 7816     		add	#22,r8	!, tmp196
 900 0040 D123     		mov.l	.L157,r1	!, tmp199
 901 0042 6480     		mov.b	@r8,r4	! msg_1(D)->data,
 902 0044 410B     		jsr	@r1	! tmp199
 903 0046 644C     		extu.b	r4,r4	! msg_1(D)->data,
 904 0048 D122     		mov.l	.L158,r1	!, tmp200
 905 004a 410B     		jsr	@r1	! tmp200
 906 004c E419     		mov	#25,r4	!,
 907 004e A037     		bra	.L143
 908 0050 0009     		nop	!
 909              	.L146:
 910 0052 6023     		mov	r2,r0	! D.4980,
 911 0054 8805     		cmp/eq	#5,r0	!,
 912 0056 8F2E     		bf.s	.L144	!
Renesas / SuperH SH GAS Big Endian C:\Users\Bimbo\AppData\Local\Temp\ccP7h7Mo.s 			page 17


 913 0058 6143     		mov	r4,r1	! msg, tmp203
 914 005a 6243     		mov	r4,r2	! msg, tmp208
 915 005c 7116     		add	#22,r1	!, tmp203
 916 005e 7217     		add	#23,r2	!, tmp208
 917 0060 6110     		mov.b	@r1,r1	! msg_1(D)->data,
 918 0062 7818     		add	#24,r8	!, tmp214
 919 0064 6220     		mov.b	@r2,r2	! msg_1(D)->data,
 920 0066 611C     		extu.b	r1,r1	! msg_1(D)->data, tmp212
 921 0068 6480     		mov.b	@r8,r4	! msg_1(D)->data,
 922 006a 622C     		extu.b	r2,r2	! msg_1(D)->data, tmp211
 923 006c 4218     		shll8	r2	!, tmp211
 924 006e 4128     		shll16	r1	!, tmp212
 925 0070 212B     		or	r2,r1	! tmp211, tmp212
 926 0072 644C     		extu.b	r4,r4	! msg_1(D)->data, msg_1(D)->data
 927 0074 241B     		or	r1,r4	! tmp212,
 928 0076 D118     		mov.l	.L159,r1	!, tmp218
 929 0078 410B     		jsr	@r1
 930 007a 0009     		nop	! tmp218
 931 007c A00D     		bra	.L167	!
 932 007e 64F3     		mov	r15,r4	!,
 933              	.L147:
 934 0080 6023     		mov	r2,r0	! D.4980,
 935 0082 880C     		cmp/eq	#12,r0	!,
 936 0084 8B17     		bf	.L144	!
 937 0086 D015     		mov.l	.L160,r0	!, tmp223
 938 0088 400B     		jsr	@r0	! tmp223
 939 008a 7416     		add	#22,r4	!,
 940 008c 2008     		tst	r0,r0	! D.4997
 941 008e 8903     		bt	.L152	!
 942 0090 E577     		mov	#119,r5	!,
 943 0092 941A     		mov.w	.L164,r4	!,
 944 0094 A011     		bra	.L154
 945 0096 0009     		nop	!
 946              	.L152:
 947 0098 64F3     		mov	r15,r4	!,
 948              	.L167:
 949 009a A009     		bra	.L155	!
 950 009c E501     		mov	#1,r5	!,
 951              	.L148:
 952 009e D110     		mov.l	.L162,r1	!, tmp232
 953 00a0 62F3     		mov	r15,r2	!, tmp231
 954 00a2 7201     		add	#1,r2	!, tmp231
 955 00a4 6310     		mov.b	@r1,r3	! lasterr,
 956 00a6 64F3     		mov	r15,r4	!,
 957 00a8 2230     		mov.b	r3,@r2	! lasterr, resp
 958 00aa E200     		mov	#0,r2	!, tmp235
 959 00ac 2120     		mov.b	r2,@r1	! tmp235, lasterr
 960 00ae E502     		mov	#2,r5	!,
 961              	.L155:
 962 00b0 D106     		mov.l	.L163,r1	!, tmp237
 963 00b2 A003     		bra	.L153
 964 00b4 0009     		nop	!
 965              	.L144:
 966 00b6 9408     		mov.w	.L164,r4	!,
 967 00b8 E512     		mov	#18,r5	!,
 968              	.L154:
 969 00ba D10A     		mov.l	.L165,r1	!, tmp239
Renesas / SuperH SH GAS Big Endian C:\Users\Bimbo\AppData\Local\Temp\ccP7h7Mo.s 			page 18


 970              	.L153:
 971 00bc 410B     		jsr	@r1
 972 00be 0009     		nop	! tmp239
 973              	.L143:
 974 00c0 7F04     		add	#4,r15	!,
 975 00c2 4F26     		lds.l   @r15+,pr	!,
 976 00c4 68F6     		mov.l   @r15+,r8	!,
 977 00c6 000B     		rts	
 978 00c8 0009     		nop
 979              		.align 1
 980              	.L164:
 981 00ca 00BE     		.short	190
 982              	.L166:
 983              		.align 2
 984              	.L163:
 985 00cc 00000000 		.long	_iso_sendpkt
 986              	.L157:
 987 00d0 00000000 		.long	_cmd_init
 988              	.L158:
 989 00d4 00000000 		.long	_sci_rxidle
 990              	.L159:
 991 00d8 00000000 		.long	_eep_setptr
 992              	.L160:
 993 00dc 00000000 		.long	_cmd_romcrc
 994              	.L162:
 995 00e0 00000000 		.long	_lasterr
 996              	.L165:
 997 00e4 00000000 		.long	_tx_7F
 998              		.size	_cmd_conf, .-_cmd_conf
 999              		.section	.text.cmd_loop,"ax",@progbits
 1000              		.align 1
 1001              		.global	_cmd_loop
 1002              		.type	_cmd_loop, @function
 1003              	_cmd_loop:
 1004 0000 2F86     		mov.l	r8,@-r15	!,
 1005 0002 2F96     		mov.l	r9,@-r15	!,
 1006 0004 D15A     		mov.l	.L247,r1	!, tmp172
 1007 0006 2FA6     		mov.l	r10,@-r15	!,
 1008 0008 99AE     		mov.w	.L210,r9	!,
 1009 000a 9AAE     		mov.w	.L211,r10	!,
 1010 000c 4F22     		sts.l	pr,@-r15	!,
 1011 000e D459     		mov.l	.L246,r4	!,
 1012 0010 410B     		jsr	@r1
 1013 0012 0009     		nop	! tmp172
 1014              	.L199:
 1015 0014 6090     		mov.b	@r9,r0	! MEM[(volatile struct st_sci *)4294963200B].SSR.BYTE,
 1016 0016 C838     		tst	#56,r0	!, MEM[(volatile struct st_sci *)4294963200B].SSR.BYTE
 1017 0018 8D05     		bt.s	.L171	!
 1018 001a E100     		mov	#0,r1	!, tmp181
 1019 001c D256     		mov.l	.L220,r2	!, tmp180
 1020 001e 2212     		mov.l	r1,@r2	! tmp181, cmstate
 1021 0020 D256     		mov.l	.L214,r2	!, tmp182
 1022 0022 A011     		bra	.L208	!
 1023 0024 2212     		mov.l	r1,@r2	! tmp181, flashstate
 1024              	.L171:
 1025 0026 6090     		mov.b	@r9,r0	! MEM[(volatile struct st_sci *)4294963200B],
 1026 0028 C840     		tst	#64,r0	!, MEM[(volatile struct st_sci *)4294963200B]
Renesas / SuperH SH GAS Big Endian C:\Users\Bimbo\AppData\Local\Temp\ccP7h7Mo.s 			page 19


 1027 002a 89F3     		bt	.L199	!
 1028 002c 65A0     		mov.b	@r10,r5	! MEM[(volatile struct st_sci *)4294963200B].RDR,
 1029 002e E1BF     		mov	#-65,r1	!, tmp204
 1030 0030 6290     		mov.b	@r9,r2	!,
 1031 0032 655C     		extu.b	r5,r5	! MEM[(volatile struct st_sci *)4294963200B].RDR,
 1032 0034 D052     		mov.l	.L215,r0	!, tmp207
 1033 0036 2129     		and	r2,r1	! tmp202, tmp203
 1034 0038 2910     		mov.b	r1,@r9	! tmp203,
 1035 003a D44E     		mov.l	.L246,r4	!,
 1036 003c 400B     		jsr	@r0
 1037 003e 0009     		nop	! tmp207
 1038 0040 8801     		cmp/eq	#1,r0	!, prv
 1039 0042 8DE7     		bt.s	.L199	!
 1040 0044 8802     		cmp/eq	#2,r0	!, prv
 1041 0046 8906     		bt	.L173	!
 1042              	.L208:
 1043 0048 D149     		mov.l	.L247,r1	!, tmp209
 1044 004a D44A     		mov.l	.L246,r4	!,
 1045 004c 410B     		jsr	@r1
 1046 004e 0009     		nop	! tmp209
 1047 0050 D14C     		mov.l	.L219,r1	!, tmp210
 1048 0052 A085     		bra	.L201	!
 1049 0054 E40A     		mov	#10,r4	!,
 1050              	.L173:
 1051 0056 D848     		mov.l	.L220,r8	!, tmp211
 1052 0058 6082     		mov.l	@r8,r0	! cmstate, cmstate
 1053 005a 2008     		tst	r0,r0	! cmstate
 1054 005c 8D03     		bt.s	.L174	!
 1055 005e 8801     		cmp/eq	#1,r0	!, cmstate
 1056 0060 8BD8     		bf	.L199	!
 1057 0062 A00A     		bra	.L175
 1058 0064 0009     		nop	!
 1059              	.L174:
 1060 0066 D148     		mov.l	.L223,r1	!, tmp215
 1061 0068 6010     		mov.b	@r1,r0	! msg.data, tmp218
 1062 006a 8881     		cmp/eq	#-127,r0	!, tmp218
 1063 006c 8B76     		bf	.L203	!
 1064 006e D147     		mov.l	.L227,r1	!, tmp219
 1065 0070 410B     		jsr	@r1
 1066 0072 0009     		nop	! tmp219
 1067 0074 E101     		mov	#1,r1	!, tmp221
 1068 0076 A071     		bra	.L203	!
 1069 0078 2812     		mov.l	r1,@r8	! tmp221, cmstate
 1070              	.L175:
 1071 007a D843     		mov.l	.L223,r8	!, tmp226
 1072 007c 6080     		mov.b	@r8,r0	! msg.data,
 1073 007e 600C     		extu.b	r0,r0	! msg.data, D.4973
 1074 0080 883D     		cmp/eq	#61,r0	!, D.4973
 1075 0082 8946     		bt	.L182	!
 1076 0084 E13D     		mov	#61,r1	!, tmp228
 1077 0086 3016     		cmp/hi	r1,r0	! tmp228, D.4973
 1078 0088 8D10     		bt.s	.L188	!
 1079 008a 881A     		cmp/eq	#26,r0	!, D.4973
 1080 008c 8D27     		bt.s	.L179	!
 1081 008e E11A     		mov	#26,r1	!, tmp229
 1082 0090 3016     		cmp/hi	r1,r0	! tmp229, D.4973
 1083 0092 8D05     		bt.s	.L189	!
Renesas / SuperH SH GAS Big Endian C:\Users\Bimbo\AppData\Local\Temp\ccP7h7Mo.s 			page 20


 1084 0094 8823     		cmp/eq	#35,r0	!, D.4973
 1085 0096 8811     		cmp/eq	#17,r0	!, D.4973
 1086 0098 8F5B     		bf.s	.L177	!
 1087 009a E151     		mov	#81,r1	!, tmp247
 1088 009c A029     		bra	.L178
 1089 009e 0009     		nop	!
 1090              	.L189:
 1091 00a0 D833     		mov.l	.L247,r8	!, tmp279
 1092 00a2 8D30     		bt.s	.L180	!
 1093 00a4 8834     		cmp/eq	#52,r0	!, D.4973
 1094 00a6 8B54     		bf	.L177	!
 1095 00a8 A04B     		bra	.L181
 1096 00aa 0009     		nop	!
 1097              	.L188:
 1098 00ac 915E     		mov.w	.L225,r1	!,
 1099 00ae 3010     		cmp/eq	r1,r0	! tmp230, D.4973
 1100 00b0 8D39     		bt.s	.L185	!
 1101 00b2 3016     		cmp/hi	r1,r0	! tmp230, D.4973
 1102 00b4 8D06     		bt.s	.L190	!
 1103 00b6 883E     		cmp/eq	#62,r0	!, D.4973
 1104 00b8 893D     		bt	.L183	!
 1105 00ba 71C5     		add	#-59,r1	!, tmp232
 1106 00bc 3010     		cmp/eq	r1,r0	! tmp232, D.4973
 1107 00be 8B48     		bf	.L177	!
 1108 00c0 A008     		bra	.L184
 1109 00c2 0009     		nop	!
 1110              	.L190:
 1111 00c4 9153     		mov.w	.L226,r1	!,
 1112 00c6 3010     		cmp/eq	r1,r0	! tmp233, D.4973
 1113 00c8 8D27     		bt.s	.L186	!
 1114 00ca 7101     		add	#1,r1	!, tmp234
 1115 00cc 3010     		cmp/eq	r1,r0	! tmp234, D.4973
 1116 00ce 8B40     		bf	.L177	!
 1117 00d0 A00B     		bra	.L187
 1118 00d2 0009     		nop	!
 1119              	.L184:
 1120 00d4 D12D     		mov.l	.L227,r1	!, tmp235
 1121 00d6 410B     		jsr	@r1
 1122 00d8 0009     		nop	! tmp235
 1123 00da A03F     		bra	.L203
 1124 00dc 0009     		nop	!
 1125              	.L179:
 1126 00de D12C     		mov.l	.L242,r1	!, tmp239
 1127 00e0 D42C     		mov.l	.L229,r4	!,
 1128 00e2 410B     		jsr	@r1	! tmp239
 1129 00e4 E502     		mov	#2,r5	!,
 1130 00e6 A024     		bra	.L249	!
 1131 00e8 6483     		mov	r8,r4	! tmp226,
 1132              	.L187:
 1133 00ea D422     		mov.l	.L246,r4	!,
 1134 00ec D12A     		mov.l	.L231,r1	!, tmp243
 1135 00ee A016     		bra	.L205
 1136 00f0 0009     		nop	!
 1137              	.L178:
 1138 00f2 D42A     		mov.l	.L241,r4	!, tmp246
 1139 00f4 2410     		mov.b	r1,@r4	! tmp247, txbuf
 1140 00f6 D126     		mov.l	.L242,r1	!, tmp249
Renesas / SuperH SH GAS Big Endian C:\Users\Bimbo\AppData\Local\Temp\ccP7h7Mo.s 			page 21


 1141 00f8 410B     		jsr	@r1	! tmp249
 1142 00fa E501     		mov	#1,r5	!,
 1143 00fc D128     		mov.l	.L234,r1	!, tmp250
 1144 00fe 410B     		jsr	@r1
 1145 0100 0009     		nop	! tmp250
 1146 0102 AF87     		bra	.L199
 1147 0104 0009     		nop	!
 1148              	.L180:
 1149 0106 D127     		mov.l	.L235,r1	!, tmp252
 1150 0108 D41A     		mov.l	.L246,r4	!,
 1151 010a 410B     		jsr	@r1
 1152 010c 0009     		nop	! tmp252
 1153 010e A01B     		bra	.L204
 1154 0110 0009     		nop	!
 1155              	.L182:
 1156 0112 6483     		mov	r8,r4	! tmp226,
 1157 0114 D124     		mov.l	.L237,r1	!, tmp256
 1158 0116 A009     		bra	.L206	!
 1159 0118 74EC     		add	#-20,r4	!,
 1160              	.L186:
 1161 011a D416     		mov.l	.L246,r4	!,
 1162 011c D123     		mov.l	.L239,r1	!, tmp260
 1163              	.L205:
 1164 011e 410B     		jsr	@r1
 1165 0120 0009     		nop	! tmp260
 1166 0122 A01B     		bra	.L203
 1167 0124 0009     		nop	!
 1168              	.L185:
 1169 0126 D122     		mov.l	.L240,r1	!, tmp264
 1170 0128 6483     		mov	r8,r4	! tmp226,
 1171 012a 74EC     		add	#-20,r4	!,
 1172              	.L206:
 1173 012c 410B     		jsr	@r1
 1174 012e 0009     		nop	! tmp264
 1175 0130 6483     		mov	r8,r4	! tmp226,
 1176              	.L249:
 1177 0132 A014     		bra	.L202	!
 1178 0134 74EC     		add	#-20,r4	!,
 1179              	.L183:
 1180 0136 D419     		mov.l	.L241,r4	!, tmp267
 1181 0138 E17E     		mov	#126,r1	!, tmp268
 1182 013a 2410     		mov.b	r1,@r4	! tmp268, txbuf
 1183 013c D114     		mov.l	.L242,r1	!, tmp270
 1184 013e A00B     		bra	.L200	!
 1185 0140 E501     		mov	#1,r5	!,
 1186              	.L181:
 1187 0142 D11C     		mov.l	.L243,r1	!, tmp273
 1188 0144 410B     		jsr	@r1
 1189 0146 0009     		nop	! tmp273
 1190              	.L204:
 1191 0148 D40A     		mov.l	.L246,r4	!,
 1192 014a 480B     		jsr	@r8
 1193 014c 0009     		nop	! tmp279
 1194 014e AF61     		bra	.L199
 1195 0150 0009     		nop	!
 1196              	.L177:
 1197 0152 D119     		mov.l	.L245,r1	!, tmp276
Renesas / SuperH SH GAS Big Endian C:\Users\Bimbo\AppData\Local\Temp\ccP7h7Mo.s 			page 22


 1198 0154 6403     		mov	r0,r4	! D.4973,
 1199 0156 E511     		mov	#17,r5	!,
 1200              	.L200:
 1201 0158 410B     		jsr	@r1
 1202 015a 0009     		nop	! tmp276
 1203              	.L203:
 1204 015c D405     		mov.l	.L246,r4	!,
 1205              	.L202:
 1206 015e D104     		mov.l	.L247,r1	!, tmp278
 1207              	.L201:
 1208 0160 410B     		jsr	@r1
 1209 0162 0009     		nop	! tmp278
 1210 0164 AF56     		bra	.L199
 1211 0166 0009     		nop	!
 1212              		.align 1
 1213              	.L210:
 1214 0168 F004     		.short	-4092
 1215              	.L211:
 1216 016a F005     		.short	-4091
 1217              	.L225:
 1218 016c 00BC     		.short	188
 1219              	.L226:
 1220 016e 00BD     		.short	189
 1221              	.L248:
 1222              		.align 2
 1223              	.L247:
 1224 0170 00000000 		.long	_iso_clearmsg
 1225              	.L246:
 1226 0174 00000004 		.long	_msg.4936
 1227              	.L220:
 1228 0178 00000000 		.long	_cmstate
 1229              	.L214:
 1230 017c 00000000 		.long	_flashstate
 1231              	.L215:
 1232 0180 00000000 		.long	_iso_parserx
 1233              	.L219:
 1234 0184 00000000 		.long	_sci_rxidle
 1235              	.L223:
 1236 0188 00000018 		.long	_msg.4936+20
 1237              	.L227:
 1238 018c 00000000 		.long	_cmd_startcomm
 1239              	.L242:
 1240 0190 00000000 		.long	_iso_sendpkt
 1241              	.L229:
 1242 0194 00000000 		.long	_npk_ver_string
 1243              	.L231:
 1244 0198 00000000 		.long	_cmd_conf
 1245              	.L241:
 1246 019c 00000000 		.long	_txbuf
 1247              	.L234:
 1248 01a0 00000000 		.long	_die
 1249              	.L235:
 1250 01a4 00000000 		.long	_cmd_rmba
 1251              	.L237:
 1252 01a8 00000000 		.long	_cmd_wmba
 1253              	.L239:
 1254 01ac 00000000 		.long	_cmd_dump
Renesas / SuperH SH GAS Big Endian C:\Users\Bimbo\AppData\Local\Temp\ccP7h7Mo.s 			page 23


 1255              	.L240:
 1256 01b0 00000000 		.long	_cmd_flash_utils
 1257              	.L243:
 1258 01b4 00000000 		.long	_cmd_flash_init
 1259              	.L245:
 1260 01b8 00000000 		.long	_tx_7F
 1261              		.size	_cmd_loop, .-_cmd_loop
 1262              		.comm	_flashstate,4,4
 1263              		.comm	_cmstate,4,4
 1264              		.comm	_txbuf,256,4
 1265              		.global	_lasterr
 1266              		.section	.bss
 1267              		.type	_lasterr, @object
 1268              		.size	_lasterr, 1
 1269              	_lasterr:
 1270 0000 00       		.zero	1
 1271              		.global	_npk_ver_string
 1272              		.section	.rodata.align1,"a"
 1273              		.align 2
 1274              		.type	_npk_ver_string, @object
 1275              		.size	_npk_ver_string, 2
 1276              	_npk_ver_string:
 1277 0000 5A00     		.string	"Z"
 1278              		.comm	_ivt,660,4
 1279 0002 0000     		.align 2
 1280              		.type	_startcomm_resp.4853, @object
 1281              		.size	_startcomm_resp.4853, 3
 1282              	_startcomm_resp.4853:
 1283 0004 C1       		.byte	-63
 1284 0005 67       		.byte	103
 1285 0006 8F       		.byte	-113
 1286              		.local	_msg.4936
 1287              		.comm	_msg.4936,276,4
 1288 0007 00       		.ident	"GCC: (GNU) 4.7-GNUSH_v13.01"
Renesas / SuperH SH GAS Big Endian C:\Users\Bimbo\AppData\Local\Temp\ccP7h7Mo.s 			page 24


DEFINED SYMBOLS
                            *ABS*:0000000000000000 cmd_parser.c
C:\Users\Bimbo\AppData\Local\Temp\ccP7h7Mo.s:51     .text.set_lasterr:0000000000000000 _set_lasterr
C:\Users\Bimbo\AppData\Local\Temp\ccP7h7Mo.s:1269   .bss:0000000000000000 _lasterr
C:\Users\Bimbo\AppData\Local\Temp\ccP7h7Mo.s:64     .text.reconst_24:0000000000000000 _reconst_24
C:\Users\Bimbo\AppData\Local\Temp\ccP7h7Mo.s:93     .text.iso_parserx:0000000000000000 _iso_parserx
C:\Users\Bimbo\AppData\Local\Temp\ccP7h7Mo.s:202    .text.cmd_init:0000000000000000 _cmd_init
                            *COM*:0000000000000004 _cmstate
                            *COM*:0000000000000004 _flashstate
C:\Users\Bimbo\AppData\Local\Temp\ccP7h7Mo.s:242    .text.cmd_startcomm:0000000000000000 _cmd_startcomm
C:\Users\Bimbo\AppData\Local\Temp\ccP7h7Mo.s:1282   .rodata.align1:0000000000000004 _startcomm_resp.4853
C:\Users\Bimbo\AppData\Local\Temp\ccP7h7Mo.s:267    .text.cmd_dump:0000000000000000 _cmd_dump
                            *COM*:0000000000000100 _txbuf
C:\Users\Bimbo\AppData\Local\Temp\ccP7h7Mo.s:433    .text.cmd_flash_init:0000000000000000 _cmd_flash_init
C:\Users\Bimbo\AppData\Local\Temp\ccP7h7Mo.s:484    .text.cmd_romcrc:0000000000000000 _cmd_romcrc
C:\Users\Bimbo\AppData\Local\Temp\ccP7h7Mo.s:546    .text.cmd_flash_utils:0000000000000000 _cmd_flash_utils
C:\Users\Bimbo\AppData\Local\Temp\ccP7h7Mo.s:695    .text.cmd_rmba:0000000000000000 _cmd_rmba
C:\Users\Bimbo\AppData\Local\Temp\ccP7h7Mo.s:780    .text.cmd_wmba:0000000000000000 _cmd_wmba
C:\Users\Bimbo\AppData\Local\Temp\ccP7h7Mo.s:861    .text.cmd_conf:0000000000000000 _cmd_conf
C:\Users\Bimbo\AppData\Local\Temp\ccP7h7Mo.s:1003   .text.cmd_loop:0000000000000000 _cmd_loop
C:\Users\Bimbo\AppData\Local\Temp\ccP7h7Mo.s:1287   .bss:0000000000000004 _msg.4936
C:\Users\Bimbo\AppData\Local\Temp\ccP7h7Mo.s:1276   .rodata.align1:0000000000000000 _npk_ver_string
                            *COM*:0000000000000294 _ivt

UNDEFINED SYMBOLS
_cks_u8
_iso_sendpkt
_eep_read16
_memcpy
_tx_7F
_platf_flash_init
_crc16
_platf_flash_eb
_cks_add8
_platf_flash_wb
_platf_flash_unprotect
_sci_rxidle
_eep_setptr
_iso_clearmsg
_die
