Renesas / SuperH SH GAS Big Endian C:\Users\Bimbo\AppData\Local\Temp\ccCnrYQC.s 			page 1


   1              		.file	"FLASH.c"
   2              		.text
   3              	! GNU C (GCC) version 4.7-GNUSH_v13.01 (sh-elf)
   4              	!	compiled by GNU C version 4.2.1-sjlj (mingw32-2), GMP version 4.3.2, MPFR version 2.4.2, MPC vers
   5              	! GGC heuristics: --param ggc-min-expand=100 --param ggc-min-heapsize=131072
   6              	! options passed:  -I . -imultilib m2
   7              	! -iprefix c:\program files (x86)\kpit\gnushv13.01-elf\sh-elf\bin\../lib/gcc/sh-elf/4.7-GNUSH_v13.0
   8              	! -D SH7052 -D PLATF="SH7052" FLASH.c -m2 -mb -auxbase-strip FLASH.o -Os
   9              	! -Wall -Wextra -Wstrict-prototypes -std=gnu99 -ffunction-sections
  10              	! -fomit-frame-pointer -fstack-usage -fverbose-asm
  11              	! options enabled:  -fauto-inc-dec -fbranch-count-reg
  12              	! -fbranch-target-load-optimize -fcaller-saves -fcombine-stack-adjustments
  13              	! -fcommon -fcompare-elim -fcprop-registers -fcrossjumping
  14              	! -fcse-follow-jumps -fdebug-types-section -fdefer-pop -fdelayed-branch
  15              	! -fdelete-null-pointer-checks -fdevirtualize -fdwarf2-cfi-asm
  16              	! -fearly-inlining -feliminate-unused-debug-types -fexpensive-optimizations
  17              	! -fforward-propagate -ffunction-cse -ffunction-sections -fgcse -fgcse-lm
  18              	! -fgnu-runtime -fguess-branch-probability -fident -fif-conversion
  19              	! -fif-conversion2 -findirect-inlining -finline -finline-atomics
  20              	! -finline-functions -finline-functions-called-once
  21              	! -finline-small-functions -fipa-cp -fipa-profile -fipa-pure-const
  22              	! -fipa-reference -fipa-sra -fira-share-save-slots -fira-share-spill-slots
  23              	! -fivopts -fkeep-static-consts -fleading-underscore -fmath-errno
  24              	! -fmerge-constants -fmerge-debug-strings -fmove-loop-invariants
  25              	! -fomit-frame-pointer -foptimize-register-move -foptimize-sibling-calls
  26              	! -fpartial-inlining -fpeephole -fpeephole2 -fprefetch-loop-arrays
  27              	! -freg-struct-return -fregmove -freorder-blocks -freorder-functions
  28              	! -frerun-cse-after-loop -fsched-critical-path-heuristic
  29              	! -fsched-dep-count-heuristic -fsched-group-heuristic -fsched-interblock
  30              	! -fsched-last-insn-heuristic -fsched-rank-heuristic -fsched-spec
  31              	! -fsched-spec-insn-heuristic -fsched-stalled-insns-dep -fschedule-insns2
  32              	! -fshow-column -fshrink-wrap -fsigned-zeros -fsort-data
  33              	! -fsplit-ivs-in-unroller -fsplit-wide-types -fstrict-aliasing
  34              	! -fstrict-overflow -fstrict-volatile-bitfields -fthread-jumps
  35              	! -ftoplevel-reorder -ftrapping-math -ftree-bit-ccp -ftree-builtin-call-dce
  36              	! -ftree-ccp -ftree-ch -ftree-copy-prop -ftree-copyrename -ftree-cselim
  37              	! -ftree-dce -ftree-dominator-opts -ftree-dse -ftree-forwprop -ftree-fre
  38              	! -ftree-loop-if-convert -ftree-loop-im -ftree-loop-ivcanon
  39              	! -ftree-loop-optimize -ftree-parallelize-loops= -ftree-phiprop -ftree-pre
  40              	! -ftree-pta -ftree-reassoc -ftree-scev-cprop -ftree-sink
  41              	! -ftree-slp-vectorize -ftree-sra -ftree-switch-conversion
  42              	! -ftree-tail-merge -ftree-ter -ftree-vect-loop-version -ftree-vrp
  43              	! -funit-at-a-time -fverbose-asm -fzero-initialized-in-bss
  44              	! -maccumulate-outgoing-args -mb
  45              	
  46              		.section	.text.fwecheck,"ax",@progbits
  47              		.align 1
  48              		.global	_fwecheck
  49              		.type	_fwecheck, @function
  50              	_fwecheck:
  51 0000 910D     		mov.w	.L4,r1	!,
  52 0002 6010     		mov.b	@r1,r0	! MEM[(volatile struct st_flash *)4294961152B],
  53 0004 C880     		tst	#128,r0	!, MEM[(volatile struct st_flash *)4294961152B]
  54 0006 8D08     		bt.s	.L3	!
  55 0008 7101     		add	#1,r1	!, tmp174
  56 000a 6010     		mov.b	@r1,r0	! MEM[(volatile struct st_flash *)4294961152B],
  57 000c 6007     		not	r0,r0	! MEM[(volatile struct st_flash *)4294961152B], tmp178
Renesas / SuperH SH GAS Big Endian C:\Users\Bimbo\AppData\Local\Temp\ccCnrYQC.s 			page 2


  58 000e 600C     		extu.b	r0,r0	! tmp178, D.5022
  59 0010 4009     		shlr2	r0	!, D.5022
  60 0012 4009     		shlr2	r0	!, D.5022
  61 0014 4001     		shlr	r0	! D.5022
  62 0016 000B     		rts	
  63 0018 4009     		shlr2	r0	!, D.5022
  64              	.L3:
  65 001a 000B     		rts	
  66 001c E000     		mov	#0,r0	!, D.5022
  67              		.align 1
  68              	.L4:
  69 001e E800     		.short	-6144
  70              		.size	_fwecheck, .-_fwecheck
  71              		.section	.text.sweset,"ax",@progbits
  72              		.align 1
  73              		.global	_sweset
  74              		.type	_sweset, @function
  75              	_sweset:
  76 0000 910B     		mov.w	.L6,r1	!,
  77 0002 E2BF     		mov	#-65,r2	!, tmp168
  78 0004 E465     		mov	#101,r4	!,
  79 0006 6310     		mov.b	@r1,r3	!,
  80 0008 2239     		and	r3,r2	! tmp166, tmp167
  81 000a 2120     		mov.b	r2,@r1	! tmp167,
  82 000c 9106     		mov.w	.L7,r1	!,
  83 000e 6010     		mov.b	@r1,r0	!,
  84 0010 CB40     		or	#64,r0	!, tmp173
  85 0012 2100     		mov.b	r0,@r1	! tmp173,
  86 0014 D102     		mov.l	.L8,r1	!, tmp175
  87 0016 412B     		jmp	@r1
  88 0018 0009     		nop	! tmp175
  89              		.align 1
  90              	.L6:
  91 001a F719     		.short	-2279
  92              	.L7:
  93 001c E800     		.short	-6144
  94              	.L9:
  95 001e 0009     		.align 2
  96              	.L8:
  97 0020 00000000 		.long	_waitn
  98              		.size	_sweset, .-_sweset
  99              		.section	.text.sweclear,"ax",@progbits
 100              		.align 1
 101              		.global	_sweclear
 102              		.type	_sweclear, @function
 103              	_sweclear:
 104 0000 910B     		mov.w	.L11,r1	!,
 105 0002 E2BF     		mov	#-65,r2	!, tmp164
 106 0004 940A     		mov.w	.L12,r4	!,
 107 0006 6310     		mov.b	@r1,r3	!,
 108 0008 2239     		and	r3,r2	! tmp162, tmp163
 109 000a 2120     		mov.b	r2,@r1	! tmp163,
 110 000c 9107     		mov.w	.L13,r1	!,
 111 000e 6010     		mov.b	@r1,r0	!,
 112 0010 CB40     		or	#64,r0	!, tmp173
 113 0012 2100     		mov.b	r0,@r1	! tmp173,
 114 0014 D102     		mov.l	.L14,r1	!, tmp176
Renesas / SuperH SH GAS Big Endian C:\Users\Bimbo\AppData\Local\Temp\ccCnrYQC.s 			page 3


 115 0016 412B     		jmp	@r1
 116 0018 0009     		nop	! tmp176
 117              		.align 1
 118              	.L11:
 119 001a E800     		.short	-6144
 120              	.L12:
 121 001c 03E9     		.short	1001
 122              	.L13:
 123 001e F719     		.short	-2279
 124              	.L15:
 125              		.align 2
 126              	.L14:
 127 0020 00000000 		.long	_waitn
 128              		.size	_sweclear, .-_sweclear
 129              		.section	.text.ferasevf,"ax",@progbits
 130              		.align 1
 131              		.global	_ferasevf
 132              		.type	_ferasevf, @function
 133              	_ferasevf:
 134 0000 2F86     		mov.l	r8,@-r15	!,
 135 0002 6043     		mov	r4,r0	! blockno, tmp178
 136 0004 2F96     		mov.l	r9,@-r15	!,
 137 0006 4008     		shll2	r0	!, tmp178
 138 0008 D11A     		mov.l	.L21,r1	!, tmp177
 139 000a 2FA6     		mov.l	r10,@-r15	!,
 140 000c 081E     		mov.l	@(r0,r1),r8	! fblocks, cur
 141 000e 6043     		mov	r4,r0	! blockno, tmp182
 142 0010 2FB6     		mov.l	r11,@-r15	!,
 143 0012 7001     		add	#1,r0	!, tmp182
 144 0014 4008     		shll2	r0	!, tmp182
 145 0016 4F22     		sts.l	pr,@-r15	!,
 146 0018 DB17     		mov.l	.L25,r11	!, tmp198
 147 001a D918     		mov.l	.L26,r9	!, tmp199
 148 001c A012     		bra	.L17	!
 149 001e 0A1E     		mov.l	@(r0,r1),r10	! fblocks, end
 150              	.L19:
 151 0020 61B2     		mov.l	@r11,r1	! pFLMCR, pFLMCR.7
 152 0022 6010     		mov.b	@r1,r0	! *pFLMCR.7_11,
 153 0024 600C     		extu.b	r0,r0	! *pFLMCR.7_11, D.4961
 154 0026 CB08     		or	#8,r0	!, D.4961
 155 0028 2100     		mov.b	r0,@r1	! D.4961, *pFLMCR.7_11
 156 002a 490B     		jsr	@r9
 157 002c 0009     		nop	! tmp199
 158 002e D114     		mov.l	.L24,r1	!, tmp188
 159 0030 410B     		jsr	@r1
 160 0032 0009     		nop	! tmp188
 161 0034 E1FF     		mov	#-1,r1	!, tmp189
 162 0036 2812     		mov.l	r1,@r8	! tmp189, *cur_2
 163 0038 490B     		jsr	@r9	! tmp199
 164 003a E415     		mov	#21,r4	!,
 165 003c 6082     		mov.l	@r8,r0	! *cur_2, D.4962
 166 003e 88FF     		cmp/eq	#-1,r0	!, D.4962
 167 0040 8B05     		bf	.L20	!
 168 0042 7804     		add	#4,r8	!, cur
 169              	.L17:
 170 0044 38A2     		cmp/hs       r10,r8	! end, cur
 171 0046 8FEB     		bf.s	.L19	!
Renesas / SuperH SH GAS Big Endian C:\Users\Bimbo\AppData\Local\Temp\ccCnrYQC.s 			page 4


 172 0048 E465     		mov	#101,r4	!,
 173 004a A001     		bra	.L18	!
 174 004c E801     		mov	#1,r8	!, rv
 175              	.L20:
 176 004e E800     		mov	#0,r8	!, rv
 177              	.L18:
 178 0050 D109     		mov.l	.L25,r1	!, tmp192
 179 0052 E433     		mov	#51,r4	!,
 180 0054 6112     		mov.l	@r1,r1	! pFLMCR, pFLMCR.7
 181 0056 6010     		mov.b	@r1,r0	! *pFLMCR.7_18,
 182 0058 C9F7     		and	#247,r0	!, D.4966
 183 005a 2100     		mov.b	r0,@r1	! D.4966, *pFLMCR.7_18
 184 005c D107     		mov.l	.L26,r1	!, tmp196
 185 005e 410B     		jsr	@r1
 186 0060 0009     		nop	! tmp196
 187 0062 6083     		mov	r8,r0	! rv,
 188 0064 4F26     		lds.l   @r15+,pr	!,
 189 0066 6BF6     		mov.l   @r15+,r11	!,
 190 0068 6AF6     		mov.l   @r15+,r10	!,
 191 006a 69F6     		mov.l   @r15+,r9	!,
 192 006c 68F6     		mov.l   @r15+,r8	!,
 193 006e 000B     		rts	
 194 0070 0009     		nop
 195              	.L27:
 196 0072 0009     		.align 2
 197              	.L21:
 198 0074 00000000 		.long	_fblocks
 199              	.L25:
 200 0078 00000000 		.long	_pFLMCR
 201              	.L26:
 202 007c 00000000 		.long	_waitn
 203              	.L24:
 204 0080 00000000 		.long	_manual_wdt
 205              		.size	_ferasevf, .-_ferasevf
 206              		.section	.text.ferase,"ax",@progbits
 207              		.align 1
 208              		.global	_ferase
 209              		.type	_ferase, @function
 210              	_ferase:
 211 0000 2F86     		mov.l	r8,@-r15	!,
 212 0002 6143     		mov	r4,r1	! blockno, tmp227
 213 0004 2F96     		mov.l	r9,@-r15	!,
 214 0006 6843     		mov	r4,r8	! blockno, blockno
 215 0008 2FA6     		mov.l	r10,@-r15	!,
 216 000a E001     		mov	#1,r0	!, bitsel
 217 000c 2FB6     		mov.l	r11,@-r15	!,
 218 000e 7101     		add	#1,r1	!, tmp227
 219 0010 2FC6     		mov.l	r12,@-r15	!,
 220 0012 2FD6     		mov.l	r13,@-r15	!,
 221 0014 2FE6     		mov.l	r14,@-r15	!,
 222 0016 4F22     		sts.l	pr,@-r15	!,
 223 0018 A002     		bra	.L29	!
 224 001a 7FFC     		add	#-4,r15	!,
 225              	.L30:
 226 001c 300C     		add	r0,r0	! bitsel
 227 001e 78FF     		add	#-1,r8	!, blockno
 228              	.L29:
Renesas / SuperH SH GAS Big Endian C:\Users\Bimbo\AppData\Local\Temp\ccCnrYQC.s 			page 5


 229 0020 4110     		dt	r1	! tmp227
 230 0022 8BFB     		bf	.L30	!
 231 0024 E10F     		mov	#15,r1	!, D.4943
 232 0026 9A40     		mov.w	.L31,r10	!,
 233 0028 9D40     		mov.w	.L32,r13	!,
 234 002a 2109     		and	r0,r1	! bitsel, D.4943
 235 002c 4009     		shlr2	r0	!, tmp188
 236 002e 2A80     		mov.b	r8,@r10	! blockno, MEM[(volatile struct st_flash *)4294961152B].EBR2.BYTE
 237 0030 4009     		shlr2	r0	!, tmp188
 238 0032 9B3C     		mov.w	.L33,r11	!,
 239 0034 600C     		extu.b	r0,r0	! tmp188, D.4945
 240 0036 2D10     		mov.b	r1,@r13	! D.4943, MEM[(volatile struct st_flash *)4294961152B].EBR1.BYTE
 241 0038 9E3A     		mov.w	.L34,r14	!, tmp193
 242 003a 2A00     		mov.b	r0,@r10	! D.4945, MEM[(volatile struct st_flash *)4294961152B].EBR2.BYTE
 243 003c 9139     		mov.w	.L35,r1	!, tmp195
 244 003e 2BE1     		mov.w	r14,@r11	! tmp193, MEM[(volatile union un_wdt *)4294962192B].WRITE.TCSR
 245 0040 2B11     		mov.w	r1,@r11	! tmp195, MEM[(volatile union un_wdt *)4294962192B].WRITE.TCSR
 246 0042 D11D     		mov.l	.L36,r1	!, tmp196
 247 0044 D91D     		mov.l	.L37,r9	!, tmp197
 248 0046 410B     		jsr	@r1	! tmp196
 249 0048 2F12     		mov.l	r1,@r15	!,
 250 004a 6292     		mov.l	@r9,r2	! pFLMCR, pFLMCR.6
 251 004c DC1C     		mov.l	.L38,r12	!, tmp201
 252 004e 6020     		mov.b	@r2,r0	! *pFLMCR.6_17,
 253 0050 600C     		extu.b	r0,r0	! *pFLMCR.6_17, D.4949
 254 0052 CB20     		or	#32,r0	!, D.4949
 255 0054 2200     		mov.b	r0,@r2	! D.4949, *pFLMCR.6_17
 256 0056 942D     		mov.w	.L39,r4	!,
 257 0058 4C0B     		jsr	@r12
 258 005a 0009     		nop	! tmp201
 259 005c 6292     		mov.l	@r9,r2	! pFLMCR, pFLMCR.6
 260 005e 6020     		mov.b	@r2,r0	! *pFLMCR.6_21,
 261 0060 600C     		extu.b	r0,r0	! *pFLMCR.6_21, D.4951
 262 0062 CB02     		or	#2,r0	!, D.4951
 263 0064 2200     		mov.b	r0,@r2	! D.4951, *pFLMCR.6_21
 264 0066 D217     		mov.l	.L40,r2	!, tmp205
 265 0068 420B     		jsr	@r2
 266 006a 0009     		nop	! tmp205
 267 006c 6292     		mov.l	@r9,r2	! pFLMCR, pFLMCR.6
 268 006e E465     		mov	#101,r4	!,
 269 0070 6020     		mov.b	@r2,r0	! *pFLMCR.6_25,
 270 0072 C9FD     		and	#253,r0	!, D.4953
 271 0074 2200     		mov.b	r0,@r2	! D.4953, *pFLMCR.6_25
 272 0076 4C0B     		jsr	@r12
 273 0078 0009     		nop	! tmp201
 274 007a 6292     		mov.l	@r9,r2	! pFLMCR, pFLMCR.6
 275 007c E465     		mov	#101,r4	!,
 276 007e 6020     		mov.b	@r2,r0	! *pFLMCR.6_29,
 277 0080 C9DF     		and	#223,r0	!, D.4955
 278 0082 2200     		mov.b	r0,@r2	! D.4955, *pFLMCR.6_29
 279 0084 4C0B     		jsr	@r12
 280 0086 0009     		nop	! tmp201
 281 0088 61F2     		mov.l	@r15,r1	!,
 282 008a 410B     		jsr	@r1
 283 008c 0009     		nop	! tmp196
 284 008e 2BE1     		mov.w	r14,@r11	! tmp193, MEM[(volatile union un_wdt *)4294962192B].WRITE.TCSR
 285 0090 2D80     		mov.b	r8,@r13	! blockno, MEM[(volatile struct st_flash *)4294961152B].EBR1.BYTE
Renesas / SuperH SH GAS Big Endian C:\Users\Bimbo\AppData\Local\Temp\ccCnrYQC.s 			page 6


 286 0092 2A80     		mov.b	r8,@r10	! blockno, MEM[(volatile struct st_flash *)4294961152B].EBR2.BYTE
 287 0094 7F04     		add	#4,r15	!,
 288 0096 4F26     		lds.l   @r15+,pr	!,
 289 0098 6EF6     		mov.l   @r15+,r14	!,
 290 009a 6DF6     		mov.l   @r15+,r13	!,
 291 009c 6CF6     		mov.l   @r15+,r12	!,
 292 009e 6BF6     		mov.l   @r15+,r11	!,
 293 00a0 6AF6     		mov.l   @r15+,r10	!,
 294 00a2 69F6     		mov.l   @r15+,r9	!,
 295 00a4 68F6     		mov.l   @r15+,r8	!,
 296 00a6 000B     		rts	
 297 00a8 0009     		nop
 298              		.align 1
 299              	.L31:
 300 00aa E803     		.short	-6141
 301              	.L32:
 302 00ac E802     		.short	-6142
 303              	.L33:
 304 00ae EC10     		.short	-5104
 305              	.L34:
 306 00b0 A558     		.short	-23208
 307              	.L35:
 308 00b2 A57E     		.short	-23170
 309              	.L39:
 310 00b4 07D1     		.short	2001
 311              	.L41:
 312 00b6 0009     		.align 2
 313              	.L36:
 314 00b8 00000000 		.long	_manual_wdt
 315              	.L37:
 316 00bc 00000000 		.long	_pFLMCR
 317              	.L38:
 318 00c0 00000000 		.long	_waitn
 319              	.L40:
 320 00c4 00000000 		.long	_waitn_tse
 321              		.size	_ferase, .-_ferase
 322              		.section	.text.platf_flash_eb,"ax",@progbits
 323              		.align 1
 324              		.global	_platf_flash_eb
 325              		.type	_platf_flash_eb, @function
 326              	_platf_flash_eb:
 327 0000 2F86     		mov.l	r8,@-r15	!,
 328 0002 E10B     		mov	#11,r1	!, tmp168
 329 0004 2F96     		mov.l	r9,@-r15	!,
 330 0006 3416     		cmp/hi	r1,r4	! tmp168, blockno
 331 0008 2FA6     		mov.l	r10,@-r15	!,
 332 000a 6843     		mov	r4,r8	! blockno, blockno
 333 000c 2FB6     		mov.l	r11,@-r15	!,
 334 000e 8D33     		bt.s	.L48	!
 335 0010 4F22     		sts.l	pr,@-r15	!,
 336 0012 D124     		mov.l	.L53,r1	!, tmp169
 337 0014 6110     		mov.b	@r1,r1	! reflash_enabled, reflash_enabled
 338 0016 2118     		tst	r1,r1	! reflash_enabled
 339 0018 8931     		bt	.L49	!
 340 001a 6043     		mov	r4,r0	! blockno, tmp173
 341 001c D122     		mov.l	.L54,r1	!, tmp172
 342 001e 4008     		shll2	r0	!, tmp173
Renesas / SuperH SH GAS Big Endian C:\Users\Bimbo\AppData\Local\Temp\ccCnrYQC.s 			page 7


 343 0020 021E     		mov.l	@(r0,r1),r2	! fblocks, tmp176
 344 0022 9136     		mov.w	.L55,r1	!,
 345 0024 3216     		cmp/hi	r1,r2	! tmp175, tmp176
 346 0026 D121     		mov.l	.L56,r1	!, tmp198
 347 0028 8B02     		bf	.L44	!
 348 002a 9233     		mov.w	.L57,r2	!,
 349 002c A001     		bra	.L52
 350 002e 0009     		nop	!
 351              	.L44:
 352 0030 9231     		mov.w	.L58,r2	!,
 353              	.L52:
 354 0032 D01F     		mov.l	.L59,r0	!, tmp181
 355 0034 400B     		jsr	@r0	! tmp181
 356 0036 2122     		mov.l	r2,@r1	! tmp180, pFLMCR
 357 0038 2008     		tst	r0,r0	! tmp182
 358 003a 8922     		bt	.L50	!
 359 003c D11D     		mov.l	.L60,r1	!, tmp184
 360 003e DB1E     		mov.l	.L61,r11	!, tmp199
 361 0040 410B     		jsr	@r1	! tmp184
 362 0042 E93D     		mov	#61,r9	!, ivtmp.51
 363 0044 9128     		mov.w	.L62,r1	!,
 364 0046 9228     		mov.w	.L63,r2	!, tmp186
 365 0048 2121     		mov.w	r2,@r1	! tmp186, MEM[(volatile union un_wdt *)4294962192B].WRITE.TCSR
 366 004a 7102     		add	#2,r1	!, tmp189
 367 004c 9226     		mov.w	.L64,r2	!, tmp190
 368 004e DA1B     		mov.l	.L65,r10	!, tmp200
 369 0050 2121     		mov.w	r2,@r1	! tmp190, MEM[(volatile union un_wdt *)4294962192B].WRITE.RSTCSR
 370              	.L47:
 371 0052 4B0B     		jsr	@r11	! tmp199
 372 0054 6483     		mov	r8,r4	! blockno,
 373 0056 4A0B     		jsr	@r10	! tmp200
 374 0058 6483     		mov	r8,r4	! blockno,
 375 005a 2008     		tst	r0,r0	! tmp193
 376 005c 8904     		bt	.L46	!
 377 005e D118     		mov.l	.L67,r1	!, tmp195
 378 0060 410B     		jsr	@r1
 379 0062 0009     		nop	! tmp195
 380 0064 A00E     		bra	.L43	!
 381 0066 E000     		mov	#0,r0	!, D.4923
 382              	.L46:
 383 0068 4910     		dt	r9	! ivtmp.51
 384 006a 8BF2     		bf	.L47	!
 385 006c D114     		mov.l	.L67,r1	!, tmp196
 386 006e 410B     		jsr	@r1
 387 0070 0009     		nop	! tmp196
 388 0072 9014     		mov.w	.L68,r0	!,
 389 0074 A006     		bra	.L43
 390 0076 0009     		nop	!
 391              	.L48:
 392 0078 9012     		mov.w	.L69,r0	!,
 393 007a A003     		bra	.L43
 394 007c 0009     		nop	!
 395              	.L49:
 396 007e A001     		bra	.L43	!
 397 0080 E000     		mov	#0,r0	!, D.4923
 398              	.L50:
 399 0082 900E     		mov.w	.L70,r0	!,
Renesas / SuperH SH GAS Big Endian C:\Users\Bimbo\AppData\Local\Temp\ccCnrYQC.s 			page 8


 400              	.L43:
 401 0084 4F26     		lds.l   @r15+,pr	!,
 402 0086 6BF6     		mov.l   @r15+,r11	!,
 403 0088 6AF6     		mov.l   @r15+,r10	!,
 404 008a 69F6     		mov.l   @r15+,r9	!,
 405 008c 68F6     		mov.l   @r15+,r8	!,
 406 008e 000B     		rts	
 407 0090 0009     		nop
 408              		.align 1
 409              	.L55:
 410 0092 7FFF     		.short	32767
 411              	.L57:
 412 0094 E801     		.short	-6143
 413              	.L58:
 414 0096 E800     		.short	-6144
 415              	.L62:
 416 0098 EC10     		.short	-5104
 417              	.L63:
 418 009a A558     		.short	-23208
 419              	.L64:
 420 009c 5A4F     		.short	23119
 421              	.L68:
 422 009e 008D     		.short	141
 423              	.L69:
 424 00a0 008C     		.short	140
 425              	.L70:
 426 00a2 0080     		.short	128
 427              	.L71:
 428              		.align 2
 429              	.L53:
 430 00a4 00000000 		.long	_reflash_enabled
 431              	.L54:
 432 00a8 00000000 		.long	_fblocks
 433              	.L56:
 434 00ac 00000000 		.long	_pFLMCR
 435              	.L59:
 436 00b0 00000000 		.long	_fwecheck
 437              	.L60:
 438 00b4 00000000 		.long	_sweset
 439              	.L61:
 440 00b8 00000000 		.long	_ferase
 441              	.L65:
 442 00bc 00000000 		.long	_ferasevf
 443              	.L67:
 444 00c0 00000000 		.long	_sweclear
 445              		.size	_platf_flash_eb, .-_platf_flash_eb
 446              		.section	.text.writepulse,"ax",@progbits
 447              		.align 1
 448              		.global	_writepulse
 449              		.type	_writepulse, @function
 450              	_writepulse:
 451 0000 2F86     		mov.l	r8,@-r15	!,
 452 0002 E000     		mov	#0,r0	!, cur
 453 0004 2F96     		mov.l	r9,@-r15	!,
 454 0006 2FA6     		mov.l	r10,@-r15	!,
 455 0008 2FB6     		mov.l	r11,@-r15	!,
 456 000a 6B63     		mov	r6,r11	! tsp, tsp
Renesas / SuperH SH GAS Big Endian C:\Users\Bimbo\AppData\Local\Temp\ccCnrYQC.s 			page 9


 457 000c 2FC6     		mov.l	r12,@-r15	!,
 458 000e 2FD6     		mov.l	r13,@-r15	!,
 459 0010 9145     		mov.w	.L75,r1	!,
 460 0012 4F22     		sts.l	pr,@-r15	!,
 461              	.L73:
 462 0014 035C     		mov.b	@(r0,r5),r3	! MEM[base: src_5(D), index: cur_51, offset: 0B],
 463 0016 6243     		mov	r4,r2	! dest, D.5081
 464 0018 320C     		add	r0,r2	! cur, D.5081
 465 001a 2230     		mov.b	r3,@r2	! MEM[base: src_5(D), index: cur_51, offset: 0B], *D.5081_55
 466 001c 4110     		dt	r1	! tmp242
 467 001e 8FF9     		bf.s	.L73	!
 468 0020 7001     		add	#1,r0	!, cur
 469              	! 62 "ISR.h" 1
 470 0022 0002     		stc	sr, r0 
 471 0024 6D03     	mov r0, r13 	! uim
 472 0026 CBF0     	or	#0xF0, r0 
 473 0028 400E     	ldc	r0, sr 
 474 002a 60D3     	mov	r13, r0 	! uim
 475 002c C9F0     	and	#0xF0, r0 
 476 002e 6D03     	mov	r0, r13 	! uim
 477              	
 478              	! 0 "" 2
 479 0030 9A36     		mov.w	.L76,r10	!,
 480 0032 9C36     		mov.w	.L77,r12	!, tmp216
 481 0034 9136     		mov.w	.L78,r1	!, tmp218
 482 0036 2AC1     		mov.w	r12,@r10	! tmp216, MEM[(volatile union un_wdt *)4294962192B].WRITE.TCSR
 483 0038 2A11     		mov.w	r1,@r10	! tmp218, MEM[(volatile union un_wdt *)4294962192B].WRITE.TCSR
 484 003a D11B     		mov.l	.L79,r1	!, tmp219
 485 003c D91B     		mov.l	.L80,r9	!, tmp220
 486 003e 410B     		jsr	@r1
 487 0040 0009     		nop	! tmp219
 488 0042 D81B     		mov.l	.L81,r8	!, tmp224
 489 0044 6192     		mov.l	@r9,r1	! pFLMCR, pFLMCR.4
 490 0046 942E     		mov.w	.L82,r4	!,
 491 0048 6010     		mov.b	@r1,r0	! *pFLMCR.4_13,
 492 004a 600C     		extu.b	r0,r0	! *pFLMCR.4_13, D.4912
 493 004c CB10     		or	#16,r0	!, D.4912
 494 004e 2100     		mov.b	r0,@r1	! D.4912, *pFLMCR.4_13
 495 0050 480B     		jsr	@r8
 496 0052 0009     		nop	! tmp224
 497 0054 6192     		mov.l	@r9,r1	! pFLMCR, pFLMCR.4
 498 0056 64B3     		mov	r11,r4	! tsp,
 499 0058 6010     		mov.b	@r1,r0	! *pFLMCR.4_17,
 500 005a 600C     		extu.b	r0,r0	! *pFLMCR.4_17, D.4914
 501 005c CB01     		or	#1,r0	!, D.4914
 502 005e 2100     		mov.b	r0,@r1	! D.4914, *pFLMCR.4_17
 503 0060 480B     		jsr	@r8
 504 0062 0009     		nop	! tmp224
 505 0064 6192     		mov.l	@r9,r1	! pFLMCR, pFLMCR.4
 506 0066 E465     		mov	#101,r4	!,
 507 0068 6010     		mov.b	@r1,r0	! *pFLMCR.4_22,
 508 006a C9FE     		and	#254,r0	!, D.4916
 509 006c 2100     		mov.b	r0,@r1	! D.4916, *pFLMCR.4_22
 510 006e 480B     		jsr	@r8
 511 0070 0009     		nop	! tmp224
 512 0072 6192     		mov.l	@r9,r1	! pFLMCR, pFLMCR.4
 513 0074 E465     		mov	#101,r4	!,
Renesas / SuperH SH GAS Big Endian C:\Users\Bimbo\AppData\Local\Temp\ccCnrYQC.s 			page 10


 514 0076 6010     		mov.b	@r1,r0	! *pFLMCR.4_26,
 515 0078 C9EF     		and	#239,r0	!, D.4918
 516 007a 2100     		mov.b	r0,@r1	! D.4918, *pFLMCR.4_26
 517 007c 480B     		jsr	@r8
 518 007e 0009     		nop	! tmp224
 519 0080 2AC1     		mov.w	r12,@r10	! tmp216, MEM[(volatile union un_wdt *)4294962192B].WRITE.TCSR
 520              	! 94 "ISR.h" 1
 521 0082 0002     		stc	sr, r0 
 522 0084 CBF0     	or	#0xF0, r0 
 523 0086 CAF0     	xor #0xF0, r0 
 524 0088 20DB     	or	r13, r0 	! uim
 525 008a 400E     	ldc	r0, sr
 526              	! 0 "" 2
 527 008c 4F26     		lds.l   @r15+,pr	!,
 528 008e 6DF6     		mov.l   @r15+,r13	!,
 529 0090 6CF6     		mov.l   @r15+,r12	!,
 530 0092 6BF6     		mov.l   @r15+,r11	!,
 531 0094 6AF6     		mov.l   @r15+,r10	!,
 532 0096 69F6     		mov.l   @r15+,r9	!,
 533 0098 68F6     		mov.l   @r15+,r8	!,
 534 009a 000B     		rts	
 535 009c 0009     		nop
 536              		.align 1
 537              	.L75:
 538 009e 0080     		.short	128
 539              	.L76:
 540 00a0 EC10     		.short	-5104
 541              	.L77:
 542 00a2 A558     		.short	-23208
 543              	.L78:
 544 00a4 A57D     		.short	-23171
 545              	.L82:
 546 00a6 0BB9     		.short	3001
 547              	.L83:
 548              		.align 2
 549              	.L79:
 550 00a8 00000000 		.long	_manual_wdt
 551              	.L80:
 552 00ac 00000000 		.long	_pFLMCR
 553              	.L81:
 554 00b0 00000000 		.long	_waitn
 555              		.size	_writepulse, .-_writepulse
 556              		.section	.text.flash_write,"ax",@progbits
 557              		.align 1
 558              		.global	_flash_write
 559              		.type	_flash_write, @function
 560              	_flash_write:
 561 0000 2F86     		mov.l	r8,@-r15	!,
 562 0002 2F96     		mov.l	r9,@-r15	!,
 563 0004 2FA6     		mov.l	r10,@-r15	!,
 564 0006 2FB6     		mov.l	r11,@-r15	!,
 565 0008 2FC6     		mov.l	r12,@-r15	!,
 566 000a 2FD6     		mov.l	r13,@-r15	!,
 567 000c 2FE6     		mov.l	r14,@-r15	!,
 568 000e 917B     		mov.w	.L124,r1	!,
 569 0010 4F22     		sts.l	pr,@-r15	!,
 570 0012 3F18     		sub	r1,r15	!,
Renesas / SuperH SH GAS Big Endian C:\Users\Bimbo\AppData\Local\Temp\ccCnrYQC.s 			page 11


 571 0014 9179     		mov.w	.L99,r1	!,
 572 0016 3416     		cmp/hi	r1,r4	! tmp213, dest
 573 0018 D141     		mov.l	.L118,r1	!, tmp263
 574 001a 8D03     		bt.s	.L85	!
 575 001c 6A43     		mov	r4,r10	! dest, dest
 576 001e 9275     		mov.w	.L101,r2	!,
 577 0020 A001     		bra	.L97
 578 0022 0009     		nop	!
 579              	.L85:
 580 0024 9273     		mov.w	.L102,r2	!,
 581              	.L97:
 582 0026 D03F     		mov.l	.L103,r0	!, tmp223
 583 0028 64F3     		mov	r15,r4	!,
 584 002a 2122     		mov.l	r2,@r1	! tmp217, pFLMCR
 585 002c 7408     		add	#8,r4	!,
 586 002e 400B     		jsr	@r0	! tmp223
 587 0030 E620     		mov	#32,r6	!,
 588 0032 D13D     		mov.l	.L104,r1	!, tmp229
 589 0034 65F3     		mov	r15,r5	!,
 590 0036 946B     		mov.w	.L117,r4	!,
 591 0038 7508     		add	#8,r5	!,
 592 003a 996A     		mov.w	.L106,r9	!,
 593 003c 410B     		jsr	@r1	! tmp229
 594 003e 34FC     		add	r15,r4	!,
 595 0040 D13A     		mov.l	.L107,r1	!, tmp230
 596 0042 DB3B     		mov.l	.L108,r11	!, tmp266
 597 0044 410B     		jsr	@r1
 598 0046 0009     		nop	! tmp230
 599 0048 9164     		mov.w	.L109,r1	!,
 600 004a 9264     		mov.w	.L110,r2	!, tmp232
 601 004c 2121     		mov.w	r2,@r1	! tmp232, MEM[(volatile union un_wdt *)4294962192B].WRITE.TCSR
 602 004e 7102     		add	#2,r1	!, tmp235
 603 0050 9262     		mov.w	.L111,r2	!, tmp236
 604 0052 2121     		mov.w	r2,@r1	! tmp236, MEM[(volatile union un_wdt *)4294962192B].WRITE.RSTCSR
 605              	.L92:
 606 0054 4B0B     		jsr	@r11	! tmp266
 607 0056 E800     		mov	#0,r8	!, cur
 608 0058 955A     		mov.w	.L117,r5	!,
 609 005a 64A3     		mov	r10,r4	! dest,
 610 005c D135     		mov.l	.L113,r1	!, tmp240
 611 005e 965C     		mov.w	.L114,r6	!,
 612 0060 410B     		jsr	@r1	! tmp240
 613 0062 35FC     		add	r15,r5	!,
 614 0064 4B0B     		jsr	@r11	! tmp266
 615 0066 EE00     		mov	#0,r14	!, m
 616 0068 D12D     		mov.l	.L118,r1	!, tmp242
 617 006a E465     		mov	#101,r4	!,
 618 006c DC32     		mov.l	.L119,r12	!, tmp245
 619 006e 6112     		mov.l	@r1,r1	! pFLMCR, pFLMCR.3
 620 0070 6010     		mov.b	@r1,r0	! *pFLMCR.3_16,
 621 0072 600C     		extu.b	r0,r0	! *pFLMCR.3_16, D.4886
 622 0074 CB04     		or	#4,r0	!, D.4886
 623 0076 2100     		mov.b	r0,@r1	! D.4886, *pFLMCR.3_16
 624 0078 4C0B     		jsr	@r12
 625 007a 0009     		nop	! tmp245
 626 007c 62C3     		mov	r12,r2	! tmp245, tmp264
 627 007e 6C83     		mov	r8,r12	! cur, D.5103
Renesas / SuperH SH GAS Big Endian C:\Users\Bimbo\AppData\Local\Temp\ccCnrYQC.s 			page 12


 628              	.L127:
 629 0080 3CAC     		add	r10,r12	! dest, D.5103
 630 0082 E1FF     		mov	#-1,r1	!, tmp246
 631 0084 2C12     		mov.l	r1,@r12	! tmp246, *D.5103_46
 632 0086 E433     		mov	#51,r4	!,
 633 0088 420B     		jsr	@r2	! tmp264
 634 008a 2F22     		mov.l	r2,@r15	!,
 635 008c 61C2     		mov.l	@r12,r1	! *D.5103_46, verifdata
 636 008e E308     		mov	#8,r3	!,
 637 0090 338C     		add	r8,r3	! cur,
 638 0092 60F3     		mov	r15,r0	!,
 639 0094 0C3E     		mov.l	@(r0,r3),r12	! MEM[symbol: src, index: cur_78, offset: 0B], srcdata
 640 0096 4B0B     		jsr	@r11	! tmp266
 641 0098 1F11     		mov.l	r1,@(4,r15)	!,
 642 009a 51F1     		mov.l	@(4,r15),r1	!,
 643 009c 31C0     		cmp/eq	r12,r1	! srcdata, verifdata
 644 009e 8D01     		bt.s	.L87	!
 645 00a0 62F2     		mov.l	@r15,r2	!,
 646 00a2 EE01     		mov	#1,r14	!, m
 647              	.L87:
 648 00a4 6117     		not	r1,r1	! verifdata, D.4892
 649 00a6 21C8     		tst	r12,r1	! srcdata, D.4892
 650 00a8 8B1D     		bf	.L94	!
 651 00aa 2C1B     		or	r1,r12	! D.4892, tmp253
 652 00ac 9030     		mov.w	.L117,r0	!,
 653 00ae 30FC     		add	r15,r0	!,
 654 00b0 08C6     		mov.l	r12,@(r0,r8)	! tmp253, MEM[symbol: reprog, index: cur_78, offset: 0B]
 655 00b2 7804     		add	#4,r8	!, cur
 656 00b4 6083     		mov	r8,r0	! cur,
 657 00b6 8820     		cmp/eq	#32,r0	!,
 658 00b8 8FE2     		bf.s	.L127	!
 659 00ba 6C83     		mov	r8,r12	! cur, D.5103
 660 00bc D118     		mov.l	.L118,r1	!, tmp255
 661 00be E433     		mov	#51,r4	!,
 662 00c0 6112     		mov.l	@r1,r1	! pFLMCR, pFLMCR.3
 663 00c2 6010     		mov.b	@r1,r0	! *pFLMCR.3_36,
 664 00c4 C9FB     		and	#251,r0	!, D.4899
 665 00c6 2100     		mov.b	r0,@r1	! D.4899, *pFLMCR.3_36
 666 00c8 D11B     		mov.l	.L119,r1	!, tmp259
 667 00ca 410B     		jsr	@r1
 668 00cc 0009     		nop	! tmp259
 669 00ce 2EE8     		tst	r14,r14	! m
 670 00d0 8B04     		bf	.L90	!
 671 00d2 D11A     		mov.l	.L123,r1	!, tmp260
 672 00d4 410B     		jsr	@r1	! tmp260
 673 00d6 E800     		mov	#0,r8	!, rv
 674 00d8 A00A     		bra	.L126	!
 675 00da 6083     		mov	r8,r0	! rv,
 676              	.L90:
 677 00dc 4910     		dt	r9	! ivtmp.74
 678 00de 8BB9     		bf	.L92	!
 679 00e0 981C     		mov.w	.L121,r8	!,
 680 00e2 A001     		bra	.L88
 681 00e4 0009     		nop	!
 682              	.L94:
 683 00e6 981A     		mov.w	.L122,r8	!,
 684              	.L88:
Renesas / SuperH SH GAS Big Endian C:\Users\Bimbo\AppData\Local\Temp\ccCnrYQC.s 			page 13


 685 00e8 D114     		mov.l	.L123,r1	!, tmp261
 686 00ea 410B     		jsr	@r1
 687 00ec 0009     		nop	! tmp261
 688 00ee 6083     		mov	r8,r0	! rv,
 689              	.L126:
 690 00f0 970A     		mov.w	.L124,r7	!,
 691 00f2 3F7C     		add	r7,r15	!,
 692 00f4 4F26     		lds.l   @r15+,pr	!,
 693 00f6 6EF6     		mov.l   @r15+,r14	!,
 694 00f8 6DF6     		mov.l   @r15+,r13	!,
 695 00fa 6CF6     		mov.l   @r15+,r12	!,
 696 00fc 6BF6     		mov.l   @r15+,r11	!,
 697 00fe 6AF6     		mov.l   @r15+,r10	!,
 698 0100 69F6     		mov.l   @r15+,r9	!,
 699 0102 68F6     		mov.l   @r15+,r8	!,
 700 0104 000B     		rts	
 701 0106 0009     		nop
 702              		.align 1
 703              	.L124:
 704 0108 0108     		.short	264
 705              	.L99:
 706 010a 7FFF     		.short	32767
 707              	.L101:
 708 010c E800     		.short	-6144
 709              	.L102:
 710 010e E801     		.short	-6143
 711              	.L117:
 712 0110 0088     		.short	136
 713              	.L106:
 714 0112 018F     		.short	399
 715              	.L109:
 716 0114 EC10     		.short	-5104
 717              	.L110:
 718 0116 A558     		.short	-23208
 719              	.L111:
 720 0118 5A4F     		.short	23119
 721              	.L114:
 722 011a 1389     		.short	5001
 723              	.L121:
 724 011c 008F     		.short	143
 725              	.L122:
 726 011e 008B     		.short	139
 727              	.L125:
 728              		.align 2
 729              	.L118:
 730 0120 00000000 		.long	_pFLMCR
 731              	.L103:
 732 0124 00000000 		.long	_memcpy
 733              	.L104:
 734 0128 00000000 		.long	___movmemSI32
 735              	.L107:
 736 012c 00000000 		.long	_sweset
 737              	.L108:
 738 0130 00000000 		.long	_manual_wdt
 739              	.L113:
 740 0134 00000000 		.long	_writepulse
 741              	.L119:
Renesas / SuperH SH GAS Big Endian C:\Users\Bimbo\AppData\Local\Temp\ccCnrYQC.s 			page 14


 742 0138 00000000 		.long	_waitn
 743              	.L123:
 744 013c 00000000 		.long	_sweclear
 745              		.size	_flash_write, .-_flash_write
 746              		.section	.text.platf_flash_wb,"ax",@progbits
 747              		.align 1
 748              		.global	_platf_flash_wb
 749              		.type	_platf_flash_wb, @function
 750              	_platf_flash_wb:
 751 0000 2F86     		mov.l	r8,@-r15	!,
 752 0002 6843     		mov	r4,r8	! dest, dest
 753 0004 2F96     		mov.l	r9,@-r15	!,
 754 0006 2FA6     		mov.l	r10,@-r15	!,
 755 0008 6A63     		mov	r6,r10	! len, len
 756 000a 2FB6     		mov.l	r11,@-r15	!,
 757 000c D11A     		mov.l	.L139,r1	!, tmp173
 758 000e 2FC6     		mov.l	r12,@-r15	!,
 759 0010 3416     		cmp/hi	r1,r4	! tmp173, dest
 760 0012 8D1E     		bt.s	.L133	!
 761 0014 4F22     		sts.l	pr,@-r15	!,
 762 0016 6043     		mov	r4,r0	! dest,
 763 0018 C81F     		tst	#31,r0	!,
 764 001a 8B1D     		bf	.L134	!
 765 001c 6063     		mov	r6,r0	! len,
 766 001e C81F     		tst	#31,r0	!,
 767 0020 8B1D     		bf	.L135	!
 768 0022 D116     		mov.l	.L140,r1	!, tmp176
 769 0024 6110     		mov.b	@r1,r1	! reflash_enabled, reflash_enabled
 770 0026 2118     		tst	r1,r1	! reflash_enabled
 771 0028 8904     		bt	.L130	!
 772 002a 6B53     		mov	r5,r11	! src, tmp183
 773 002c 6943     		mov	r4,r9	! dest, dest
 774 002e DC14     		mov.l	.L141,r12	!, tmp184
 775 0030 A007     		bra	.L131	!
 776 0032 3B48     		sub	r4,r11	! dest, tmp183
 777              	.L130:
 778 0034 A014     		bra	.L129	!
 779 0036 E000     		mov	#0,r0	!, rv
 780              	.L132:
 781 0038 4C0B     		jsr	@r12	! tmp184
 782 003a 6493     		mov	r9,r4	! dest,
 783 003c 2008     		tst	r0,r0	! rv
 784 003e 8B0F     		bf	.L129	!
 785 0040 7920     		add	#32,r9	!, dest
 786              	.L131:
 787 0042 61A3     		mov	r10,r1	! len, tmp181
 788 0044 318C     		add	r8,r1	! dest, tmp181
 789 0046 65B3     		mov	r11,r5	! tmp183, D.5136
 790 0048 3190     		cmp/eq	r9,r1	! dest, tmp181
 791 004a 8FF5     		bf.s	.L132	!
 792 004c 359C     		add	r9,r5	! dest, D.5136
 793 004e A007     		bra	.L146	!
 794 0050 E000     		mov	#0,r0	!, rv
 795              	.L133:
 796 0052 900D     		mov.w	.L142,r0	!,
 797 0054 A004     		bra	.L129
 798 0056 0009     		nop	!
Renesas / SuperH SH GAS Big Endian C:\Users\Bimbo\AppData\Local\Temp\ccCnrYQC.s 			page 15


 799              	.L134:
 800 0058 900B     		mov.w	.L143,r0	!,
 801 005a A001     		bra	.L129
 802 005c 0009     		nop	!
 803              	.L135:
 804 005e 9009     		mov.w	.L144,r0	!,
 805              	.L129:
 806              	.L146:
 807 0060 4F26     		lds.l   @r15+,pr	!,
 808 0062 6CF6     		mov.l   @r15+,r12	!,
 809 0064 6BF6     		mov.l   @r15+,r11	!,
 810 0066 6AF6     		mov.l   @r15+,r10	!,
 811 0068 69F6     		mov.l   @r15+,r9	!,
 812 006a 68F6     		mov.l   @r15+,r8	!,
 813 006c 000B     		rts	
 814 006e 0009     		nop
 815              		.align 1
 816              	.L142:
 817 0070 0088     		.short	136
 818              	.L143:
 819 0072 0089     		.short	137
 820              	.L144:
 821 0074 008A     		.short	138
 822              	.L145:
 823 0076 0009     		.align 2
 824              	.L139:
 825 0078 0003FFFF 		.long	262143
 826              	.L140:
 827 007c 00000000 		.long	_reflash_enabled
 828              	.L141:
 829 0080 00000000 		.long	_flash_write
 830              		.size	_platf_flash_wb, .-_platf_flash_wb
 831              		.section	.text.platf_flash_init,"ax",@progbits
 832              		.align 1
 833              		.global	_platf_flash_init
 834              		.type	_platf_flash_init, @function
 835              	_platf_flash_init:
 836 0000 2F86     		mov.l	r8,@-r15	!,
 837 0002 E200     		mov	#0,r2	!, tmp165
 838 0004 D107     		mov.l	.L150,r1	!, tmp164
 839 0006 6843     		mov	r4,r8	! err, err
 840 0008 D007     		mov.l	.L151,r0	!, tmp166
 841 000a 4F22     		sts.l	pr,@-r15	!,
 842 000c 400B     		jsr	@r0	! tmp166
 843 000e 2120     		mov.b	r2,@r1	! tmp165, reflash_enabled
 844 0010 2008     		tst	r0,r0	! tmp167
 845 0012 8F02     		bf.s	.L149	!
 846 0014 E180     		mov	#-128,r1	!, tmp169
 847 0016 A001     		bra	.L148	!
 848 0018 2810     		mov.b	r1,@r8	! tmp169, *err_4(D)
 849              	.L149:
 850 001a E001     		mov	#1,r0	!, D.4860
 851              	.L148:
 852 001c 4F26     		lds.l   @r15+,pr	!,
 853 001e 68F6     		mov.l   @r15+,r8	!,
 854 0020 000B     		rts	
 855 0022 0009     		nop
Renesas / SuperH SH GAS Big Endian C:\Users\Bimbo\AppData\Local\Temp\ccCnrYQC.s 			page 16


 856              	.L152:
 857              		.align 2
 858              	.L150:
 859 0024 00000000 		.long	_reflash_enabled
 860              	.L151:
 861 0028 00000000 		.long	_fwecheck
 862              		.size	_platf_flash_init, .-_platf_flash_init
 863              		.section	.text.platf_flash_unprotect,"ax",@progbits
 864              		.align 1
 865              		.global	_platf_flash_unprotect
 866              		.type	_platf_flash_unprotect, @function
 867              	_platf_flash_unprotect:
 868 0000 D101     		mov.l	.L154,r1	!, tmp160
 869 0002 E201     		mov	#1,r2	!, tmp161
 870 0004 000B     		rts	
 871 0006 2120     		mov.b	r2,@r1	! tmp161, reflash_enabled
 872              	.L155:
 873              		.align 2
 874              	.L154:
 875 0008 00000000 		.long	_reflash_enabled
 876              		.size	_platf_flash_unprotect, .-_platf_flash_unprotect
 877              		.comm	_pFLMCR,4,4
 878              		.global	_reflash_enabled
 879              		.section	.bss
 880              		.type	_reflash_enabled, @object
 881              		.size	_reflash_enabled, 1
 882              	_reflash_enabled:
 883 0000 00       		.zero	1
 884              		.comm	_ivt,660,4
 885              		.ident	"GCC: (GNU) 4.7-GNUSH_v13.01"
Renesas / SuperH SH GAS Big Endian C:\Users\Bimbo\AppData\Local\Temp\ccCnrYQC.s 			page 17


DEFINED SYMBOLS
                            *ABS*:0000000000000000 FLASH.c
C:\Users\Bimbo\AppData\Local\Temp\ccCnrYQC.s:50     .text.fwecheck:0000000000000000 _fwecheck
C:\Users\Bimbo\AppData\Local\Temp\ccCnrYQC.s:75     .text.sweset:0000000000000000 _sweset
C:\Users\Bimbo\AppData\Local\Temp\ccCnrYQC.s:103    .text.sweclear:0000000000000000 _sweclear
C:\Users\Bimbo\AppData\Local\Temp\ccCnrYQC.s:133    .text.ferasevf:0000000000000000 _ferasevf
                            *COM*:0000000000000004 _pFLMCR
C:\Users\Bimbo\AppData\Local\Temp\ccCnrYQC.s:210    .text.ferase:0000000000000000 _ferase
C:\Users\Bimbo\AppData\Local\Temp\ccCnrYQC.s:326    .text.platf_flash_eb:0000000000000000 _platf_flash_eb
C:\Users\Bimbo\AppData\Local\Temp\ccCnrYQC.s:882    .bss:0000000000000000 _reflash_enabled
C:\Users\Bimbo\AppData\Local\Temp\ccCnrYQC.s:450    .text.writepulse:0000000000000000 _writepulse
C:\Users\Bimbo\AppData\Local\Temp\ccCnrYQC.s:560    .text.flash_write:0000000000000000 _flash_write
C:\Users\Bimbo\AppData\Local\Temp\ccCnrYQC.s:750    .text.platf_flash_wb:0000000000000000 _platf_flash_wb
C:\Users\Bimbo\AppData\Local\Temp\ccCnrYQC.s:835    .text.platf_flash_init:0000000000000000 _platf_flash_init
C:\Users\Bimbo\AppData\Local\Temp\ccCnrYQC.s:867    .text.platf_flash_unprotect:0000000000000000 _platf_flash_unprotect
                            *COM*:0000000000000294 _ivt

UNDEFINED SYMBOLS
_waitn
_fblocks
_manual_wdt
_waitn_tse
_memcpy
___movmemSI32
