Renesas / SuperH SH GAS Big Endian C:\Users\Bimbo\AppData\Local\Temp\cc7wv5I3.s 			page 1


   1              		.file	"FLASH.c"
   2              		.text
   3              	! GNU C (GCC) version 4.7-GNUSH_v13.01 (sh-elf)
   4              	!	compiled by GNU C version 4.2.1-sjlj (mingw32-2), GMP version 4.3.2, MPFR version 2.4.2, MPC vers
   5              	! GGC heuristics: --param ggc-min-expand=100 --param ggc-min-heapsize=131072
   6              	! options passed:  -I . -imultilib m2
   7              	! -iprefix c:\program files (x86)\kpit\gnushv13.01-elf\sh-elf\bin\../lib/gcc/sh-elf/4.7-GNUSH_v13.0
   8              	! -D SH7052 -D PLATF="SH7052" FLASH.c -m2 -mb -auxbase-strip FLASH.o -Os
   9              	! -Wall -Wextra -Wstrict-prototypes -std=gnu99 -ffunction-sections
  10              	! -fomit-frame-pointer -fstack-usage -fverbose-asm
  11              	! options enabled:  -fauto-inc-dec -fbranch-count-reg
  12              	! -fbranch-target-load-optimize -fcaller-saves -fcombine-stack-adjustments
  13              	! -fcommon -fcompare-elim -fcprop-registers -fcrossjumping
  14              	! -fcse-follow-jumps -fdebug-types-section -fdefer-pop -fdelayed-branch
  15              	! -fdelete-null-pointer-checks -fdevirtualize -fdwarf2-cfi-asm
  16              	! -fearly-inlining -feliminate-unused-debug-types -fexpensive-optimizations
  17              	! -fforward-propagate -ffunction-cse -ffunction-sections -fgcse -fgcse-lm
  18              	! -fgnu-runtime -fguess-branch-probability -fident -fif-conversion
  19              	! -fif-conversion2 -findirect-inlining -finline -finline-atomics
  20              	! -finline-functions -finline-functions-called-once
  21              	! -finline-small-functions -fipa-cp -fipa-profile -fipa-pure-const
  22              	! -fipa-reference -fipa-sra -fira-share-save-slots -fira-share-spill-slots
  23              	! -fivopts -fkeep-static-consts -fleading-underscore -fmath-errno
  24              	! -fmerge-constants -fmerge-debug-strings -fmove-loop-invariants
  25              	! -fomit-frame-pointer -foptimize-register-move -foptimize-sibling-calls
  26              	! -fpartial-inlining -fpeephole -fpeephole2 -fprefetch-loop-arrays
  27              	! -freg-struct-return -fregmove -freorder-blocks -freorder-functions
  28              	! -frerun-cse-after-loop -fsched-critical-path-heuristic
  29              	! -fsched-dep-count-heuristic -fsched-group-heuristic -fsched-interblock
  30              	! -fsched-last-insn-heuristic -fsched-rank-heuristic -fsched-spec
  31              	! -fsched-spec-insn-heuristic -fsched-stalled-insns-dep -fschedule-insns2
  32              	! -fshow-column -fshrink-wrap -fsigned-zeros -fsort-data
  33              	! -fsplit-ivs-in-unroller -fsplit-wide-types -fstrict-aliasing
  34              	! -fstrict-overflow -fstrict-volatile-bitfields -fthread-jumps
  35              	! -ftoplevel-reorder -ftrapping-math -ftree-bit-ccp -ftree-builtin-call-dce
  36              	! -ftree-ccp -ftree-ch -ftree-copy-prop -ftree-copyrename -ftree-cselim
  37              	! -ftree-dce -ftree-dominator-opts -ftree-dse -ftree-forwprop -ftree-fre
  38              	! -ftree-loop-if-convert -ftree-loop-im -ftree-loop-ivcanon
  39              	! -ftree-loop-optimize -ftree-parallelize-loops= -ftree-phiprop -ftree-pre
  40              	! -ftree-pta -ftree-reassoc -ftree-scev-cprop -ftree-sink
  41              	! -ftree-slp-vectorize -ftree-sra -ftree-switch-conversion
  42              	! -ftree-tail-merge -ftree-ter -ftree-vect-loop-version -ftree-vrp
  43              	! -funit-at-a-time -fverbose-asm -fzero-initialized-in-bss
  44              	! -maccumulate-outgoing-args -mb
  45              	
  46              		.section	.text.sweclear,"ax",@progbits
  47              		.align 1
  48              		.type	_sweclear, @function
  49              	_sweclear:
  50 0000 910B     		mov.w	.L2,r1	!,
  51 0002 E2BF     		mov	#-65,r2	!, tmp164
  52 0004 940A     		mov.w	.L3,r4	!,
  53 0006 6310     		mov.b	@r1,r3	!,
  54 0008 2239     		and	r3,r2	! tmp162, tmp163
  55 000a 2120     		mov.b	r2,@r1	! tmp163,
  56 000c 9107     		mov.w	.L4,r1	!,
  57 000e 6010     		mov.b	@r1,r0	!,
Renesas / SuperH SH GAS Big Endian C:\Users\Bimbo\AppData\Local\Temp\cc7wv5I3.s 			page 2


  58 0010 CB40     		or	#64,r0	!, tmp173
  59 0012 2100     		mov.b	r0,@r1	! tmp173,
  60 0014 D102     		mov.l	.L5,r1	!, tmp176
  61 0016 412B     		jmp	@r1
  62 0018 0009     		nop	! tmp176
  63              		.align 1
  64              	.L2:
  65 001a E800     		.short	-6144
  66              	.L3:
  67 001c 03E9     		.short	1001
  68              	.L4:
  69 001e F719     		.short	-2279
  70              	.L6:
  71              		.align 2
  72              	.L5:
  73 0020 00000000 		.long	_waitn
  74              		.size	_sweclear, .-_sweclear
  75              		.section	.text.fwecheck,"ax",@progbits
  76              		.align 1
  77              		.type	_fwecheck, @function
  78              	_fwecheck:
  79 0000 910D     		mov.w	.L10,r1	!,
  80 0002 6010     		mov.b	@r1,r0	! MEM[(volatile struct st_flash *)4294961152B],
  81 0004 C880     		tst	#128,r0	!, MEM[(volatile struct st_flash *)4294961152B]
  82 0006 8D08     		bt.s	.L9	!
  83 0008 7101     		add	#1,r1	!, tmp174
  84 000a 6010     		mov.b	@r1,r0	! MEM[(volatile struct st_flash *)4294961152B],
  85 000c 6007     		not	r0,r0	! MEM[(volatile struct st_flash *)4294961152B], tmp178
  86 000e 600C     		extu.b	r0,r0	! tmp178, D.5044
  87 0010 4009     		shlr2	r0	!, D.5044
  88 0012 4009     		shlr2	r0	!, D.5044
  89 0014 4001     		shlr	r0	! D.5044
  90 0016 000B     		rts	
  91 0018 4009     		shlr2	r0	!, D.5044
  92              	.L9:
  93 001a 000B     		rts	
  94 001c E000     		mov	#0,r0	!, D.5044
  95              		.align 1
  96              	.L10:
  97 001e E800     		.short	-6144
  98              		.size	_fwecheck, .-_fwecheck
  99              		.section	.text.platf_flash_eb,"ax",@progbits
 100              		.align 1
 101              		.global	_platf_flash_eb
 102              		.type	_platf_flash_eb, @function
 103              	_platf_flash_eb:
 104 0000 2F86     		mov.l	r8,@-r15	!,
 105 0002 E10B     		mov	#11,r1	!, tmp201
 106 0004 2F96     		mov.l	r9,@-r15	!,
 107 0006 3416     		cmp/hi	r1,r4	! tmp201, blockno
 108 0008 2FA6     		mov.l	r10,@-r15	!,
 109 000a 6843     		mov	r4,r8	! blockno, blockno
 110 000c 2FB6     		mov.l	r11,@-r15	!,
 111 000e 2FC6     		mov.l	r12,@-r15	!,
 112 0010 2FD6     		mov.l	r13,@-r15	!,
 113 0012 2FE6     		mov.l	r14,@-r15	!,
 114 0014 4F22     		sts.l	pr,@-r15	!,
Renesas / SuperH SH GAS Big Endian C:\Users\Bimbo\AppData\Local\Temp\cc7wv5I3.s 			page 3


 115 0016 8F02     		bf.s	.L66	!
 116 0018 7FEC     		add	#-20,r15	!,
 117 001a A0B2     		bra	.L23
 118 001c 0009     		nop	!
 119              	.L66:
 120 001e D168     		mov.l	.L28,r1	!, tmp202
 121 0020 6110     		mov.b	@r1,r1	! reflash_enabled, reflash_enabled
 122 0022 2118     		tst	r1,r1	! reflash_enabled
 123 0024 8B01     		bf	.L64	!
 124 0026 A0B0     		bra	.L12	!
 125 0028 E000     		mov	#0,r0	!, D.4939
 126              	.L64:
 127 002a D166     		mov.l	.L39,r1	!, tmp205
 128 002c 6043     		mov	r4,r0	! blockno, tmp206
 129 002e 4008     		shll2	r0	!, tmp206
 130 0030 001E     		mov.l	@(r0,r1),r0	! fblocks,
 131 0032 91B5     		mov.w	.L30,r1	!,
 132 0034 3016     		cmp/hi	r1,r0	! tmp208,
 133 0036 D164     		mov.l	.L53,r1	!, tmp305
 134 0038 8F03     		bf.s	.L13	!
 135 003a 1F04     		mov.l	r0,@(16,r15)	!, %sfp
 136 003c 92B1     		mov.w	.L32,r2	!,
 137 003e A001     		bra	.L27
 138 0040 0009     		nop	!
 139              	.L13:
 140 0042 92AF     		mov.w	.L36,r2	!,
 141              	.L27:
 142 0044 D061     		mov.l	.L34,r0	!, tmp213
 143 0046 400B     		jsr	@r0	! tmp213
 144 0048 2122     		mov.l	r2,@r1	! tmp212, pFLMCR
 145 004a 2008     		tst	r0,r0	! tmp214
 146 004c 8B01     		bf	.L65	!
 147 004e A09B     		bra	.L25
 148 0050 0009     		nop	!
 149              	.L65:
 150 0052 91A8     		mov.w	.L35,r1	!,
 151 0054 E2BF     		mov	#-65,r2	!, tmp224
 152 0056 E465     		mov	#101,r4	!,
 153 0058 6310     		mov.b	@r1,r3	!,
 154 005a 2239     		and	r3,r2	! tmp222, tmp223
 155 005c 2120     		mov.b	r2,@r1	! tmp223,
 156 005e 91A1     		mov.w	.L36,r1	!,
 157 0060 9CA2     		mov.w	.L37,r12	!,
 158 0062 6010     		mov.b	@r1,r0	!,
 159 0064 CB40     		or	#64,r0	!, tmp229
 160 0066 2100     		mov.b	r0,@r1	! tmp229,
 161 0068 D159     		mov.l	.L54,r1	!, tmp231
 162 006a DD56     		mov.l	.L39,r13	!, tmp315
 163 006c 410B     		jsr	@r1
 164 006e 0009     		nop	! tmp231
 165 0070 919B     		mov.w	.L45,r1	!, tmp233
 166 0072 2C11     		mov.w	r1,@r12	! tmp233, MEM[(volatile union un_wdt *)4294962192B].WRITE.TCSR
 167 0074 919A     		mov.w	.L41,r1	!,
 168 0076 929A     		mov.w	.L42,r2	!, tmp237
 169 0078 2121     		mov.w	r2,@r1	! tmp237, MEM[(volatile union un_wdt *)4294962192B].WRITE.RSTCSR
 170 007a E13D     		mov	#61,r1	!,
 171 007c 1F13     		mov.l	r1,@(12,r15)	!, %sfp
Renesas / SuperH SH GAS Big Endian C:\Users\Bimbo\AppData\Local\Temp\cc7wv5I3.s 			page 4


 172 007e 6183     		mov	r8,r1	! blockno, tmp314
 173 0080 7101     		add	#1,r1	!, tmp314
 174 0082 4108     		shll2	r1	!, tmp314
 175 0084 9B94     		mov.w	.L43,r11	!,
 176 0086 A071     		bra	.L15	!
 177 0088 3D1C     		add	r1,r13	! tmp314, tmp315
 178              	.L16:
 179 008a 300C     		add	r0,r0	! bitsel
 180 008c 71FF     		add	#-1,r1	!, blockno
 181              	.L22:
 182 008e 4210     		dt	r2	! tmp316
 183 0090 8BFB     		bf	.L16	!
 184 0092 E20F     		mov	#15,r2	!, D.5067
 185 0094 9E8D     		mov.w	.L44,r14	!,
 186 0096 2209     		and	r0,r2	! bitsel, D.5067
 187 0098 4009     		shlr2	r0	!, tmp246
 188 009a 2B10     		mov.b	r1,@r11	! blockno, MEM[(volatile struct st_flash *)4294961152B].EBR2.BYTE
 189 009c 4009     		shlr2	r0	!, tmp246
 190 009e 2E20     		mov.b	r2,@r14	! D.5067, MEM[(volatile struct st_flash *)4294961152B].EBR1.BYTE
 191 00a0 600C     		extu.b	r0,r0	! tmp246, D.5065
 192 00a2 9782     		mov.w	.L45,r7	!, tmp251
 193 00a4 9286     		mov.w	.L46,r2	!,
 194 00a6 2B00     		mov.b	r0,@r11	! D.5065, MEM[(volatile struct st_flash *)4294961152B].EBR2.BYTE
 195 00a8 D64A     		mov.l	.L52,r6	!, tmp254
 196 00aa 2C71     		mov.w	r7,@r12	! tmp251, MEM[(volatile union un_wdt *)4294962192B].WRITE.TCSR
 197 00ac DA46     		mov.l	.L53,r10	!, tmp255
 198 00ae 2C21     		mov.w	r2,@r12	!, MEM[(volatile union un_wdt *)4294962192B].WRITE.TCSR
 199 00b0 1F11     		mov.l	r1,@(4,r15)	!,
 200 00b2 2F72     		mov.l	r7,@r15	!,
 201 00b4 460B     		jsr	@r6	! tmp254
 202 00b6 1F62     		mov.l	r6,@(8,r15)	!,
 203 00b8 65A2     		mov.l	@r10,r5	! pFLMCR, pFLMCR.6
 204 00ba D945     		mov.l	.L54,r9	!, tmp259
 205 00bc 6050     		mov.b	@r5,r0	! *pFLMCR.6_41,
 206 00be 600C     		extu.b	r0,r0	! *pFLMCR.6_41, D.5062
 207 00c0 CB20     		or	#32,r0	!, D.5062
 208 00c2 2500     		mov.b	r0,@r5	! D.5062, *pFLMCR.6_41
 209 00c4 9477     		mov.w	.L50,r4	!,
 210 00c6 490B     		jsr	@r9
 211 00c8 0009     		nop	! tmp259
 212 00ca 65A2     		mov.l	@r10,r5	! pFLMCR, pFLMCR.6
 213 00cc 6050     		mov.b	@r5,r0	! *pFLMCR.6_44,
 214 00ce 600C     		extu.b	r0,r0	! *pFLMCR.6_44, D.5060
 215 00d0 CB02     		or	#2,r0	!, D.5060
 216 00d2 2500     		mov.b	r0,@r5	! D.5060, *pFLMCR.6_44
 217 00d4 D540     		mov.l	.L51,r5	!, tmp263
 218 00d6 450B     		jsr	@r5
 219 00d8 0009     		nop	! tmp263
 220 00da 65A2     		mov.l	@r10,r5	! pFLMCR, pFLMCR.6
 221 00dc E465     		mov	#101,r4	!,
 222 00de 6050     		mov.b	@r5,r0	! *pFLMCR.6_47,
 223 00e0 C9FD     		and	#253,r0	!, D.5058
 224 00e2 2500     		mov.b	r0,@r5	! D.5058, *pFLMCR.6_47
 225 00e4 490B     		jsr	@r9
 226 00e6 0009     		nop	! tmp259
 227 00e8 65A2     		mov.l	@r10,r5	! pFLMCR, pFLMCR.6
 228 00ea E465     		mov	#101,r4	!,
Renesas / SuperH SH GAS Big Endian C:\Users\Bimbo\AppData\Local\Temp\cc7wv5I3.s 			page 5


 229 00ec 6050     		mov.b	@r5,r0	! *pFLMCR.6_50,
 230 00ee C9DF     		and	#223,r0	!, D.5056
 231 00f0 2500     		mov.b	r0,@r5	! D.5056, *pFLMCR.6_50
 232 00f2 490B     		jsr	@r9
 233 00f4 0009     		nop	! tmp259
 234 00f6 56F2     		mov.l	@(8,r15),r6	!,
 235 00f8 460B     		jsr	@r6
 236 00fa 0009     		nop	! tmp254
 237 00fc 67F2     		mov.l	@r15,r7	!,
 238 00fe 62A3     		mov	r10,r2	! tmp255, tmp306
 239 0100 2C71     		mov.w	r7,@r12	! tmp251, MEM[(volatile union un_wdt *)4294962192B].WRITE.TCSR
 240 0102 51F1     		mov.l	@(4,r15),r1	!,
 241 0104 67D2     		mov.l	@r13,r7	! fblocks, end
 242 0106 2E10     		mov.b	r1,@r14	! blockno, MEM[(volatile struct st_flash *)4294961152B].EBR1.BYTE
 243 0108 2B10     		mov.b	r1,@r11	! blockno, MEM[(volatile struct st_flash *)4294961152B].EBR2.BYTE
 244 010a A015     		bra	.L17	!
 245 010c 5EF4     		mov.l	@(16,r15),r14	! %sfp, cur
 246              	.L19:
 247 010e 6322     		mov.l	@r2,r3	! pFLMCR, pFLMCR.7
 248 0110 6030     		mov.b	@r3,r0	! *pFLMCR.7_58,
 249 0112 600C     		extu.b	r0,r0	! *pFLMCR.7_58, D.5077
 250 0114 CB08     		or	#8,r0	!, D.5077
 251 0116 2300     		mov.b	r0,@r3	! D.5077, *pFLMCR.7_58
 252 0118 1F22     		mov.l	r2,@(8,r15)	!,
 253 011a 490B     		jsr	@r9	! tmp307
 254 011c 2F72     		mov.l	r7,@r15	!,
 255 011e D32D     		mov.l	.L52,r3	!, tmp293
 256 0120 430B     		jsr	@r3
 257 0122 0009     		nop	! tmp293
 258 0124 E3FF     		mov	#-1,r3	!, tmp294
 259 0126 2E32     		mov.l	r3,@r14	! tmp294, *cur_61
 260 0128 490B     		jsr	@r9	! tmp307
 261 012a E415     		mov	#21,r4	!,
 262 012c 60E2     		mov.l	@r14,r0	! *cur_61, D.5076
 263 012e 52F2     		mov.l	@(8,r15),r2	!,
 264 0130 88FF     		cmp/eq	#-1,r0	!, D.5076
 265 0132 8F06     		bf.s	.L26	!
 266 0134 67F2     		mov.l	@r15,r7	!,
 267 0136 7E04     		add	#4,r14	!, cur
 268              	.L17:
 269 0138 3E72     		cmp/hs       r7,r14	! end, cur
 270 013a 8FE8     		bf.s	.L19	!
 271 013c E465     		mov	#101,r4	!,
 272 013e A001     		bra	.L18	!
 273 0140 E901     		mov	#1,r9	!, rv
 274              	.L26:
 275 0142 E900     		mov	#0,r9	!, rv
 276              	.L18:
 277 0144 D120     		mov.l	.L53,r1	!, tmp297
 278 0146 E433     		mov	#51,r4	!,
 279 0148 6112     		mov.l	@r1,r1	! pFLMCR, pFLMCR.7
 280 014a 6010     		mov.b	@r1,r0	! *pFLMCR.7_64,
 281 014c C9F7     		and	#247,r0	!, D.5074
 282 014e 2100     		mov.b	r0,@r1	! D.5074, *pFLMCR.7_64
 283 0150 D11F     		mov.l	.L54,r1	!, tmp301
 284 0152 410B     		jsr	@r1
 285 0154 0009     		nop	! tmp301
Renesas / SuperH SH GAS Big Endian C:\Users\Bimbo\AppData\Local\Temp\cc7wv5I3.s 			page 6


 286 0156 2998     		tst	r9,r9	! rv
 287 0158 8D05     		bt.s	.L20	!
 288 015a 51F3     		mov.l	@(12,r15),r1	! %sfp,
 289 015c D11F     		mov.l	.L56,r1	!, tmp302
 290 015e 410B     		jsr	@r1
 291 0160 0009     		nop	! tmp302
 292 0162 A012     		bra	.L12	!
 293 0164 E000     		mov	#0,r0	!, D.4939
 294              	.L20:
 295 0166 4110     		dt	r1	!
 296 0168 8D05     		bt.s	.L21	!
 297 016a 1F13     		mov.l	r1,@(12,r15)	!, %sfp
 298              	.L15:
 299 016c 6283     		mov	r8,r2	! blockno, tmp316
 300 016e 6183     		mov	r8,r1	! blockno, blockno
 301 0170 E001     		mov	#1,r0	!, bitsel
 302 0172 AF8C     		bra	.L22	!
 303 0174 7201     		add	#1,r2	!, tmp316
 304              	.L21:
 305 0176 D119     		mov.l	.L56,r1	!, tmp303
 306 0178 410B     		jsr	@r1
 307 017a 0009     		nop	! tmp303
 308 017c 901C     		mov.w	.L57,r0	!,
 309 017e A004     		bra	.L12
 310 0180 0009     		nop	!
 311              	.L23:
 312 0182 901A     		mov.w	.L58,r0	!,
 313 0184 A001     		bra	.L12
 314 0186 0009     		nop	!
 315              	.L25:
 316 0188 9018     		mov.w	.L59,r0	!,
 317              	.L12:
 318 018a 7F14     		add	#20,r15	!,
 319 018c 4F26     		lds.l   @r15+,pr	!,
 320 018e 6EF6     		mov.l   @r15+,r14	!,
 321 0190 6DF6     		mov.l   @r15+,r13	!,
 322 0192 6CF6     		mov.l   @r15+,r12	!,
 323 0194 6BF6     		mov.l   @r15+,r11	!,
 324 0196 6AF6     		mov.l   @r15+,r10	!,
 325 0198 69F6     		mov.l   @r15+,r9	!,
 326 019a 68F6     		mov.l   @r15+,r8	!,
 327 019c 000B     		rts	
 328 019e 0009     		nop
 329              		.align 1
 330              	.L30:
 331 01a0 7FFF     		.short	32767
 332              	.L32:
 333 01a2 E801     		.short	-6143
 334              	.L36:
 335 01a4 E800     		.short	-6144
 336              	.L35:
 337 01a6 F719     		.short	-2279
 338              	.L37:
 339 01a8 EC10     		.short	-5104
 340              	.L45:
 341 01aa A558     		.short	-23208
 342              	.L41:
Renesas / SuperH SH GAS Big Endian C:\Users\Bimbo\AppData\Local\Temp\cc7wv5I3.s 			page 7


 343 01ac EC12     		.short	-5102
 344              	.L42:
 345 01ae 5A4F     		.short	23119
 346              	.L43:
 347 01b0 E803     		.short	-6141
 348              	.L44:
 349 01b2 E802     		.short	-6142
 350              	.L46:
 351 01b4 A57E     		.short	-23170
 352              	.L50:
 353 01b6 07D1     		.short	2001
 354              	.L57:
 355 01b8 008D     		.short	141
 356              	.L58:
 357 01ba 008C     		.short	140
 358              	.L59:
 359 01bc 0080     		.short	128
 360              	.L60:
 361 01be 0009     		.align 2
 362              	.L28:
 363 01c0 00000000 		.long	_reflash_enabled
 364              	.L39:
 365 01c4 00000000 		.long	_fblocks
 366              	.L53:
 367 01c8 00000000 		.long	_pFLMCR
 368              	.L34:
 369 01cc 00000000 		.long	_fwecheck
 370              	.L54:
 371 01d0 00000000 		.long	_waitn
 372              	.L52:
 373 01d4 00000000 		.long	_manual_wdt
 374              	.L51:
 375 01d8 00000000 		.long	_waitn_tse
 376              	.L56:
 377 01dc 00000000 		.long	_sweclear
 378              		.size	_platf_flash_eb, .-_platf_flash_eb
 379              		.section	.text.platf_flash_wb,"ax",@progbits
 380              		.align 1
 381              		.global	_platf_flash_wb
 382              		.type	_platf_flash_wb, @function
 383              	_platf_flash_wb:
 384 0000 2F86     		mov.l	r8,@-r15	!,
 385 0002 2F96     		mov.l	r9,@-r15	!,
 386 0004 2FA6     		mov.l	r10,@-r15	!,
 387 0006 2FB6     		mov.l	r11,@-r15	!,
 388 0008 6B43     		mov	r4,r11	! dest, dest
 389 000a 2FC6     		mov.l	r12,@-r15	!,
 390 000c 2FD6     		mov.l	r13,@-r15	!,
 391 000e 2FE6     		mov.l	r14,@-r15	!,
 392 0010 91D4     		mov.w	.L94,r1	!,
 393 0012 4F22     		sts.l	pr,@-r15	!,
 394 0014 3F18     		sub	r1,r15	!,
 395 0016 D171     		mov.l	.L95,r1	!, tmp272
 396 0018 3416     		cmp/hi	r1,r4	! tmp272, dest
 397 001a 8F02     		bf.s	.L145	!
 398 001c 1F57     		mov.l	r5,@(28,r15)	! src, %sfp
 399 001e A103     		bra	.L81
Renesas / SuperH SH GAS Big Endian C:\Users\Bimbo\AppData\Local\Temp\cc7wv5I3.s 			page 8


 400 0020 0009     		nop	!
 401              	.L145:
 402 0022 6043     		mov	r4,r0	! dest,
 403 0024 C81F     		tst	#31,r0	!,
 404 0026 8901     		bt	.L144	!
 405 0028 A101     		bra	.L82
 406 002a 0009     		nop	!
 407              	.L144:
 408 002c 6063     		mov	r6,r0	! len,
 409 002e C81F     		tst	#31,r0	!,
 410 0030 8901     		bt	.L143	!
 411 0032 A0FF     		bra	.L83
 412 0034 0009     		nop	!
 413              	.L143:
 414 0036 D16A     		mov.l	.L96,r1	!, tmp275
 415 0038 6110     		mov.b	@r1,r1	! reflash_enabled, reflash_enabled
 416 003a 2118     		tst	r1,r1	! reflash_enabled
 417 003c 890A     		bt	.L69	!
 418 003e 6CF3     		mov	r15,r12	!, tmp390
 419 0040 91BD     		mov.w	.L123,r1	!,
 420 0042 6A63     		mov	r6,r10	! len, len
 421 0044 31FC     		add	r15,r1	!,
 422 0046 1F13     		mov.l	r1,@(12,r15)	!, %sfp
 423 0048 3148     		sub	r4,r1	! dest,
 424 004a 3168     		sub	r6,r1	! len,
 425 004c 6843     		mov	r4,r8	! dest, dest
 426 004e 7C20     		add	#32,r12	!, tmp390
 427 0050 A0E4     		bra	.L70	!
 428 0052 1F16     		mov.l	r1,@(24,r15)	!, %sfp
 429              	.L69:
 430 0054 A0EF     		bra	.L68	!
 431 0056 E900     		mov	#0,r9	!, rv
 432              	.L80:
 433 0058 91B2     		mov.w	.L98,r1	!,
 434 005a 3816     		cmp/hi	r1,r8	! tmp278, dest
 435 005c D161     		mov.l	.L124,r1	!, tmp377
 436 005e 8D03     		bt.s	.L71	!
 437 0060 55F7     		mov.l	@(28,r15),r5	! %sfp, tmp285
 438 0062 92AE     		mov.w	.L107,r2	!,
 439 0064 A002     		bra	.L149	!
 440 0066 64C3     		mov	r12,r4	! tmp390,
 441              	.L71:
 442 0068 92AC     		mov.w	.L101,r2	!,
 443 006a 64C3     		mov	r12,r4	! tmp390,
 444              	.L149:
 445 006c D05E     		mov.l	.L102,r0	!, tmp290
 446 006e 35B8     		sub	r11,r5	! dest, tmp285
 447 0070 2122     		mov.l	r2,@r1	! tmp282, pFLMCR
 448 0072 358C     		add	r8,r5	! dest,
 449 0074 400B     		jsr	@r0	! tmp290
 450 0076 E620     		mov	#32,r6	!,
 451 0078 D15C     		mov.l	.L103,r1	!, tmp296
 452 007a 65C3     		mov	r12,r5	! tmp390,
 453 007c 949F     		mov.w	.L123,r4	!,
 454 007e E2BF     		mov	#-65,r2	!, tmp305
 455 0080 9DA1     		mov.w	.L105,r13	!,
 456 0082 410B     		jsr	@r1	! tmp296
Renesas / SuperH SH GAS Big Endian C:\Users\Bimbo\AppData\Local\Temp\cc7wv5I3.s 			page 9


 457 0084 34FC     		add	r15,r4	!,
 458 0086 919F     		mov.w	.L106,r1	!,
 459 0088 E465     		mov	#101,r4	!,
 460 008a 6310     		mov.b	@r1,r3	!,
 461 008c 2239     		and	r3,r2	! tmp303, tmp304
 462 008e 2120     		mov.b	r2,@r1	! tmp304,
 463 0090 9197     		mov.w	.L107,r1	!,
 464 0092 6010     		mov.b	@r1,r0	!,
 465 0094 CB40     		or	#64,r0	!, tmp310
 466 0096 2100     		mov.b	r0,@r1	! tmp310,
 467 0098 D155     		mov.l	.L125,r1	!, tmp312
 468 009a 410B     		jsr	@r1
 469 009c 0009     		nop	! tmp312
 470 009e 9194     		mov.w	.L115,r1	!, tmp314
 471 00a0 2D11     		mov.w	r1,@r13	! tmp314, MEM[(volatile union un_wdt *)4294962192B].WRITE.TCSR
 472 00a2 9193     		mov.w	.L110,r1	!,
 473 00a4 9293     		mov.w	.L111,r2	!, tmp318
 474 00a6 2121     		mov.w	r2,@r1	! tmp318, MEM[(volatile union un_wdt *)4294962192B].WRITE.RSTCSR
 475 00a8 9192     		mov.w	.L112,r1	!,
 476 00aa 1F14     		mov.l	r1,@(16,r15)	!, %sfp
 477 00ac 9191     		mov.w	.L113,r1	!,
 478 00ae 318C     		add	r8,r1	! dest,
 479 00b0 1F15     		mov.l	r1,@(20,r15)	!, %sfp
 480              	.L79:
 481 00b2 D150     		mov.l	.L122,r1	!, tmp319
 482 00b4 410B     		jsr	@r1
 483 00b6 0009     		nop	! tmp319
 484 00b8 51F5     		mov.l	@(20,r15),r1	! %sfp, tmp394
 485 00ba 6083     		mov	r8,r0	! dest, dest
 486 00bc 3188     		sub	r8,r1	! dest, tmp394
 487              	.L73:
 488 00be 52F6     		mov.l	@(24,r15),r2	! %sfp, tmp324
 489 00c0 4110     		dt	r1	! tmp394
 490 00c2 32AC     		add	r10,r2	! len, tmp324
 491 00c4 022C     		mov.b	@(r0,r2),r2	! MEM[base: D.5224_73, index: dest_126, offset: 0B],
 492 00c6 2020     		mov.b	r2,@r0	! MEM[base: D.5224_73, index: dest_126, offset: 0B], *D.5141_53
 493 00c8 8FF9     		bf.s	.L73	!
 494 00ca 7001     		add	#1,r0	!, dest
 495              	! 62 "ISR.h" 1
 496 00cc 0002     		stc	sr, r0 
 497 00ce 6303     	mov r0, r3 	! uim
 498 00d0 CBF0     	or	#0xF0, r0 
 499 00d2 400E     	ldc	r0, sr 
 500 00d4 6033     	mov	r3, r0 	! uim
 501 00d6 C9F0     	and	#0xF0, r0 
 502 00d8 6303     	mov	r0, r3 	! uim
 503              	
 504              	! 0 "" 2
 505 00da 9276     		mov.w	.L115,r2	!, tmp329
 506 00dc 917A     		mov.w	.L116,r1	!, tmp331
 507 00de 2D21     		mov.w	r2,@r13	! tmp329, MEM[(volatile union un_wdt *)4294962192B].WRITE.TCSR
 508 00e0 2D11     		mov.w	r1,@r13	! tmp331, MEM[(volatile union un_wdt *)4294962192B].WRITE.TCSR
 509 00e2 D144     		mov.l	.L122,r1	!, tmp332
 510 00e4 DE3F     		mov.l	.L124,r14	!, tmp333
 511 00e6 2F22     		mov.l	r2,@r15	!,
 512 00e8 1F32     		mov.l	r3,@(8,r15)	!,
 513 00ea 410B     		jsr	@r1	! tmp332
Renesas / SuperH SH GAS Big Endian C:\Users\Bimbo\AppData\Local\Temp\cc7wv5I3.s 			page 10


 514 00ec 1F11     		mov.l	r1,@(4,r15)	!,
 515 00ee 67E2     		mov.l	@r14,r7	! pFLMCR, pFLMCR.4
 516 00f0 D93F     		mov.l	.L125,r9	!, tmp337
 517 00f2 6070     		mov.b	@r7,r0	! *pFLMCR.4_58,
 518 00f4 600C     		extu.b	r0,r0	! *pFLMCR.4_58, D.5146
 519 00f6 CB10     		or	#16,r0	!, D.5146
 520 00f8 2700     		mov.b	r0,@r7	! D.5146, *pFLMCR.4_58
 521 00fa 946C     		mov.w	.L120,r4	!,
 522 00fc 490B     		jsr	@r9
 523 00fe 0009     		nop	! tmp337
 524 0100 67E2     		mov.l	@r14,r7	! pFLMCR, pFLMCR.4
 525 0102 9469     		mov.w	.L121,r4	!,
 526 0104 6070     		mov.b	@r7,r0	! *pFLMCR.4_61,
 527 0106 600C     		extu.b	r0,r0	! *pFLMCR.4_61, D.5148
 528 0108 CB01     		or	#1,r0	!, D.5148
 529 010a 2700     		mov.b	r0,@r7	! D.5148, *pFLMCR.4_61
 530 010c 490B     		jsr	@r9
 531 010e 0009     		nop	! tmp337
 532 0110 67E2     		mov.l	@r14,r7	! pFLMCR, pFLMCR.4
 533 0112 E465     		mov	#101,r4	!,
 534 0114 6070     		mov.b	@r7,r0	! *pFLMCR.4_64,
 535 0116 C9FE     		and	#254,r0	!, D.5150
 536 0118 2700     		mov.b	r0,@r7	! D.5150, *pFLMCR.4_64
 537 011a 490B     		jsr	@r9
 538 011c 0009     		nop	! tmp337
 539 011e 67E2     		mov.l	@r14,r7	! pFLMCR, pFLMCR.4
 540 0120 E465     		mov	#101,r4	!,
 541 0122 6070     		mov.b	@r7,r0	! *pFLMCR.4_67,
 542 0124 C9EF     		and	#239,r0	!, D.5152
 543 0126 2700     		mov.b	r0,@r7	! D.5152, *pFLMCR.4_67
 544 0128 490B     		jsr	@r9
 545 012a 0009     		nop	! tmp337
 546 012c 62F2     		mov.l	@r15,r2	!,
 547 012e 2D21     		mov.w	r2,@r13	! tmp329, MEM[(volatile union un_wdt *)4294962192B].WRITE.TCSR
 548 0130 53F2     		mov.l	@(8,r15),r3	!,
 549              	! 94 "ISR.h" 1
 550 0132 0002     		stc	sr, r0 
 551 0134 CBF0     	or	#0xF0, r0 
 552 0136 CAF0     	xor #0xF0, r0 
 553 0138 203B     	or	r3, r0 	! uim
 554 013a 400E     	ldc	r0, sr
 555              	! 0 "" 2
 556 013c 51F1     		mov.l	@(4,r15),r1	!,
 557 013e 410B     		jsr	@r1
 558 0140 0009     		nop	! tmp332
 559 0142 61E2     		mov.l	@r14,r1	! pFLMCR, pFLMCR.3
 560 0144 E465     		mov	#101,r4	!,
 561 0146 EE00     		mov	#0,r14	!, m
 562 0148 6010     		mov.b	@r1,r0	! *pFLMCR.3_29,
 563 014a 600C     		extu.b	r0,r0	! *pFLMCR.3_29, D.5131
 564 014c CB04     		or	#4,r0	!, D.5131
 565 014e 2100     		mov.b	r0,@r1	! D.5131, *pFLMCR.3_29
 566 0150 490B     		jsr	@r9
 567 0152 0009     		nop	! tmp337
 568 0154 E700     		mov	#0,r7	!, cur
 569 0156 6293     		mov	r9,r2	! tmp337, tmp378
 570              	.L76:
Renesas / SuperH SH GAS Big Endian C:\Users\Bimbo\AppData\Local\Temp\cc7wv5I3.s 			page 11


 571 0158 6973     		mov	r7,r9	! cur, D.5177
 572 015a 398C     		add	r8,r9	! dest, D.5177
 573 015c E1FF     		mov	#-1,r1	!, tmp360
 574 015e 2912     		mov.l	r1,@r9	! tmp360, *D.5177_71
 575 0160 E433     		mov	#51,r4	!,
 576 0162 2F22     		mov.l	r2,@r15	!,
 577 0164 420B     		jsr	@r2	! tmp378
 578 0166 1F72     		mov.l	r7,@(8,r15)	!,
 579 0168 6192     		mov.l	@r9,r1	! *D.5177_71, verifdata
 580 016a 60C3     		mov	r12,r0	! tmp390,
 581 016c 57F2     		mov.l	@(8,r15),r7	!,
 582 016e D321     		mov.l	.L122,r3	!, tmp364
 583 0170 097E     		mov.l	@(r0,r7),r9	! MEM[symbol: src, index: cur_123, offset: 0B], srcdata
 584 0172 430B     		jsr	@r3	! tmp364
 585 0174 1F11     		mov.l	r1,@(4,r15)	!,
 586 0176 51F1     		mov.l	@(4,r15),r1	!,
 587 0178 62F2     		mov.l	@r15,r2	!,
 588 017a 3190     		cmp/eq	r9,r1	! srcdata, verifdata
 589 017c 8D01     		bt.s	.L74	!
 590 017e 57F2     		mov.l	@(8,r15),r7	!,
 591 0180 EE01     		mov	#1,r14	!, m
 592              	.L74:
 593 0182 6117     		not	r1,r1	! verifdata, D.5127
 594 0184 2198     		tst	r9,r1	! srcdata, D.5127
 595 0186 8F41     		bf.s	.L85	!
 596 0188 291B     		or	r1,r9	! D.5127, tmp367
 597 018a 9118     		mov.w	.L123,r1	!,
 598 018c 60F3     		mov	r15,r0	!,
 599 018e 317C     		add	r7,r1	! cur,
 600 0190 7704     		add	#4,r7	!, cur
 601 0192 0196     		mov.l	r9,@(r0,r1)	! tmp367, MEM[symbol: reprog, index: cur_123, offset: 0B]
 602 0194 6073     		mov	r7,r0	! cur,
 603 0196 8820     		cmp/eq	#32,r0	!,
 604 0198 8FDE     		bf.s	.L76	!
 605 019a E433     		mov	#51,r4	!,
 606 019c D111     		mov.l	.L124,r1	!, tmp369
 607 019e 6112     		mov.l	@r1,r1	! pFLMCR, pFLMCR.3
 608 01a0 6010     		mov.b	@r1,r0	! *pFLMCR.3_43,
 609 01a2 C9FB     		and	#251,r0	!, D.5122
 610 01a4 2100     		mov.b	r0,@r1	! D.5122, *pFLMCR.3_43
 611 01a6 D112     		mov.l	.L125,r1	!, tmp373
 612 01a8 410B     		jsr	@r1
 613 01aa 0009     		nop	! tmp373
 614 01ac 2EE8     		tst	r14,r14	! m
 615 01ae 8F25     		bf.s	.L77	!
 616 01b0 51F4     		mov.l	@(16,r15),r1	! %sfp,
 617 01b2 D111     		mov.l	.L126,r1	!, tmp374
 618 01b4 410B     		jsr	@r1	! tmp374
 619 01b6 7820     		add	#32,r8	!, dest
 620 01b8 A030     		bra	.L70	!
 621 01ba 7AE0     		add	#-32,r10	!, len
 622              		.align 1
 623              	.L94:
 624 01bc 0120     		.short	288
 625              	.L123:
 626 01be 00A0     		.short	160
 627              	.L98:
Renesas / SuperH SH GAS Big Endian C:\Users\Bimbo\AppData\Local\Temp\cc7wv5I3.s 			page 12


 628 01c0 7FFF     		.short	32767
 629              	.L107:
 630 01c2 E800     		.short	-6144
 631              	.L101:
 632 01c4 E801     		.short	-6143
 633              	.L105:
 634 01c6 EC10     		.short	-5104
 635              	.L106:
 636 01c8 F719     		.short	-2279
 637              	.L115:
 638 01ca A558     		.short	-23208
 639              	.L110:
 640 01cc EC12     		.short	-5102
 641              	.L111:
 642 01ce 5A4F     		.short	23119
 643              	.L112:
 644 01d0 018F     		.short	399
 645              	.L113:
 646 01d2 0080     		.short	128
 647              	.L116:
 648 01d4 A57D     		.short	-23171
 649              	.L120:
 650 01d6 0BB9     		.short	3001
 651              	.L121:
 652 01d8 1389     		.short	5001
 653              	.L127:
 654 01da 0009     		.align 2
 655              	.L95:
 656 01dc 0003FFFF 		.long	262143
 657              	.L96:
 658 01e0 00000000 		.long	_reflash_enabled
 659              	.L124:
 660 01e4 00000000 		.long	_pFLMCR
 661              	.L102:
 662 01e8 00000000 		.long	_memcpy
 663              	.L103:
 664 01ec 00000000 		.long	___movmemSI32
 665              	.L125:
 666 01f0 00000000 		.long	_waitn
 667              	.L122:
 668 01f4 00000000 		.long	_manual_wdt
 669              	.L126:
 670 01f8 00000000 		.long	_sweclear
 671              	.L77:
 672 01fc 4110     		dt	r1	!
 673 01fe 8D02     		bt.s	.L142	!
 674 0200 1F14     		mov.l	r1,@(16,r15)	!, %sfp
 675 0202 AF56     		bra	.L79
 676 0204 0009     		nop	!
 677              	.L142:
 678 0206 9923     		mov.w	.L128,r9	!,
 679 0208 A001     		bra	.L75
 680 020a 0009     		nop	!
 681              	.L85:
 682 020c 9921     		mov.w	.L129,r9	!,
 683              	.L75:
 684 020e D113     		mov.l	.L130,r1	!, tmp375
Renesas / SuperH SH GAS Big Endian C:\Users\Bimbo\AppData\Local\Temp\cc7wv5I3.s 			page 13


 685 0210 410B     		jsr	@r1
 686 0212 0009     		nop	! tmp375
 687 0214 2998     		tst	r9,r9	! rv
 688 0216 8B0E     		bf	.L68	!
 689 0218 7820     		add	#32,r8	!, dest
 690 021a 7AE0     		add	#-32,r10	!, len
 691              	.L70:
 692 021c 2AA8     		tst	r10,r10	! len
 693 021e 8901     		bt	.L141	!
 694 0220 AF1A     		bra	.L80
 695 0222 0009     		nop	!
 696              	.L141:
 697 0224 AF16     		bra	.L69
 698 0226 0009     		nop	!
 699              	.L81:
 700 0228 9914     		mov.w	.L131,r9	!,
 701 022a A005     		bra	.L148	!
 702 022c 6093     		mov	r9,r0	! rv,
 703              	.L82:
 704 022e 9912     		mov.w	.L132,r9	!,
 705 0230 A002     		bra	.L148	!
 706 0232 6093     		mov	r9,r0	! rv,
 707              	.L83:
 708 0234 9910     		mov.w	.L133,r9	!,
 709              	.L68:
 710 0236 6093     		mov	r9,r0	! rv,
 711              	.L148:
 712 0238 970F     		mov.w	.L134,r7	!,
 713 023a 3F7C     		add	r7,r15	!,
 714 023c 4F26     		lds.l   @r15+,pr	!,
 715 023e 6EF6     		mov.l   @r15+,r14	!,
 716 0240 6DF6     		mov.l   @r15+,r13	!,
 717 0242 6CF6     		mov.l   @r15+,r12	!,
 718 0244 6BF6     		mov.l   @r15+,r11	!,
 719 0246 6AF6     		mov.l   @r15+,r10	!,
 720 0248 69F6     		mov.l   @r15+,r9	!,
 721 024a 68F6     		mov.l   @r15+,r8	!,
 722 024c 000B     		rts	
 723 024e 0009     		nop
 724              		.align 1
 725              	.L128:
 726 0250 008F     		.short	143
 727              	.L129:
 728 0252 008B     		.short	139
 729              	.L131:
 730 0254 0088     		.short	136
 731              	.L132:
 732 0256 0089     		.short	137
 733              	.L133:
 734 0258 008A     		.short	138
 735              	.L134:
 736 025a 0120     		.short	288
 737              	.L135:
 738              		.align 2
 739              	.L130:
 740 025c 00000000 		.long	_sweclear
 741              		.size	_platf_flash_wb, .-_platf_flash_wb
Renesas / SuperH SH GAS Big Endian C:\Users\Bimbo\AppData\Local\Temp\cc7wv5I3.s 			page 14


 742              		.section	.text.platf_flash_init,"ax",@progbits
 743              		.align 1
 744              		.global	_platf_flash_init
 745              		.type	_platf_flash_init, @function
 746              	_platf_flash_init:
 747 0000 2F86     		mov.l	r8,@-r15	!,
 748 0002 E200     		mov	#0,r2	!, tmp165
 749 0004 D107     		mov.l	.L153,r1	!, tmp164
 750 0006 6843     		mov	r4,r8	! err, err
 751 0008 D007     		mov.l	.L154,r0	!, tmp166
 752 000a 4F22     		sts.l	pr,@-r15	!,
 753 000c 400B     		jsr	@r0	! tmp166
 754 000e 2120     		mov.b	r2,@r1	! tmp165, reflash_enabled
 755 0010 2008     		tst	r0,r0	! tmp167
 756 0012 8F02     		bf.s	.L152	!
 757 0014 E180     		mov	#-128,r1	!, tmp169
 758 0016 A001     		bra	.L151	!
 759 0018 2810     		mov.b	r1,@r8	! tmp169, *err_4(D)
 760              	.L152:
 761 001a E001     		mov	#1,r0	!, D.4860
 762              	.L151:
 763 001c 4F26     		lds.l   @r15+,pr	!,
 764 001e 68F6     		mov.l   @r15+,r8	!,
 765 0020 000B     		rts	
 766 0022 0009     		nop
 767              	.L155:
 768              		.align 2
 769              	.L153:
 770 0024 00000000 		.long	_reflash_enabled
 771              	.L154:
 772 0028 00000000 		.long	_fwecheck
 773              		.size	_platf_flash_init, .-_platf_flash_init
 774              		.section	.text.platf_flash_unprotect,"ax",@progbits
 775              		.align 1
 776              		.global	_platf_flash_unprotect
 777              		.type	_platf_flash_unprotect, @function
 778              	_platf_flash_unprotect:
 779 0000 D101     		mov.l	.L157,r1	!, tmp160
 780 0002 E201     		mov	#1,r2	!, tmp161
 781 0004 000B     		rts	
 782 0006 2120     		mov.b	r2,@r1	! tmp161, reflash_enabled
 783              	.L158:
 784              		.align 2
 785              	.L157:
 786 0008 00000000 		.long	_reflash_enabled
 787              		.size	_platf_flash_unprotect, .-_platf_flash_unprotect
 788              		.comm	_pFLMCR,4,4
 789              		.global	_reflash_enabled
 790              		.section	.bss
 791              		.type	_reflash_enabled, @object
 792              		.size	_reflash_enabled, 1
 793              	_reflash_enabled:
 794 0000 00       		.zero	1
 795              		.comm	_ivt,660,4
 796              		.ident	"GCC: (GNU) 4.7-GNUSH_v13.01"
Renesas / SuperH SH GAS Big Endian C:\Users\Bimbo\AppData\Local\Temp\cc7wv5I3.s 			page 15


DEFINED SYMBOLS
                            *ABS*:0000000000000000 FLASH.c
C:\Users\Bimbo\AppData\Local\Temp\cc7wv5I3.s:49     .text.sweclear:0000000000000000 _sweclear
C:\Users\Bimbo\AppData\Local\Temp\cc7wv5I3.s:78     .text.fwecheck:0000000000000000 _fwecheck
C:\Users\Bimbo\AppData\Local\Temp\cc7wv5I3.s:103    .text.platf_flash_eb:0000000000000000 _platf_flash_eb
C:\Users\Bimbo\AppData\Local\Temp\cc7wv5I3.s:793    .bss:0000000000000000 _reflash_enabled
                            *COM*:0000000000000004 _pFLMCR
C:\Users\Bimbo\AppData\Local\Temp\cc7wv5I3.s:383    .text.platf_flash_wb:0000000000000000 _platf_flash_wb
C:\Users\Bimbo\AppData\Local\Temp\cc7wv5I3.s:746    .text.platf_flash_init:0000000000000000 _platf_flash_init
C:\Users\Bimbo\AppData\Local\Temp\cc7wv5I3.s:778    .text.platf_flash_unprotect:0000000000000000 _platf_flash_unprotect
                            *COM*:0000000000000294 _ivt

UNDEFINED SYMBOLS
_waitn
_fblocks
_manual_wdt
_waitn_tse
_memcpy
___movmemSI32
